

Microchip MPLAB XC8 Assembler V2.30 build 20200825195618 
                                                                                               Wed Sep 21 08:21:20 2022

Microchip MPLAB XC8 C Compiler v2.30 (Free license) build 20200825195618 Og1 
     1                           	processor	18F4620
     2                           	fnconf	rparam,??,?,0
     3                           	pagewidth 120
     4                           	opt	flic
     5                           	psect	idataCOMRAM,global,class=CODE,delta=1,noexec
     6                           	psect	idataBANK0,global,class=CODE,delta=1,noexec
     7                           	psect	smallconst,global,reloc=2,class=SMALLCONST,delta=1,noexec
     8                           	psect	cinit,global,reloc=2,class=CODE,delta=1
     9                           	psect	bssCOMRAM,global,class=COMRAM,space=1,delta=1,lowdata,noexec
    10                           	psect	dataCOMRAM,global,class=COMRAM,space=1,delta=1,lowdata,noexec
    11                           	psect	bssBANK0,global,class=BANK0,space=1,delta=1,lowdata,noexec
    12                           	psect	dataBANK0,global,class=BANK0,space=1,delta=1,lowdata,noexec
    13                           	psect	cstackBANK0,global,class=BANK0,space=1,delta=1,lowdata,noexec
    14                           	psect	cstackCOMRAM,global,class=COMRAM,space=1,delta=1,lowdata,noexec
    15                           	psect	text0,global,reloc=2,class=CODE,delta=1
    16                           	psect	text1,global,reloc=2,class=CODE,delta=1
    17                           	psect	text2,global,reloc=2,class=CODE,delta=1
    18                           	psect	text3,global,reloc=2,class=CODE,delta=1
    19                           	psect	text4,global,reloc=2,class=CODE,delta=1
    20                           	psect	text5,global,reloc=2,class=CODE,delta=1
    21                           	psect	text6,global,reloc=2,class=CODE,delta=1
    22                           	psect	text7,global,reloc=2,class=CODE,delta=1,group=1
    23                           	psect	text8,global,reloc=2,class=CODE,delta=1
    24                           	psect	text9,global,reloc=2,class=CODE,delta=1
    25                           	psect	text10,global,reloc=2,class=CODE,delta=1,group=1
    26                           	psect	text11,global,reloc=2,class=CODE,delta=1,group=1
    27                           	psect	text12,global,reloc=2,class=CODE,delta=1,group=1
    28                           	psect	text13,global,reloc=2,class=CODE,delta=1,group=1
    29                           	psect	text14,global,reloc=2,class=CODE,delta=1
    30                           	psect	text15,global,reloc=2,class=CODE,delta=1
    31                           	psect	text16,global,reloc=2,class=CODE,delta=1
    32                           	psect	text17,global,reloc=2,class=CODE,delta=1
    33                           	psect	intcode,global,reloc=2,class=CODE,delta=1
    34                           	psect	intcode_body,global,reloc=2,class=CODE,delta=1
    35                           	psect	text19,global,reloc=2,class=CODE,delta=1
    36                           	psect	text20,global,reloc=2,class=CODE,delta=1
    37                           	psect	text21,global,reloc=2,class=CODE,delta=1
    38                           	psect	text22,global,reloc=2,class=CODE,delta=1
    39                           	psect	text23,global,reloc=2,class=CODE,delta=1
    40                           	psect	text24,global,reloc=2,class=CODE,delta=1
    41                           	psect	text25,global,reloc=2,class=CODE,delta=1
    42                           	psect	text26,global,reloc=2,class=CODE,delta=1
    43                           	psect	text27,global,reloc=2,class=CODE,delta=1
    44                           	psect	text28,global,reloc=2,class=CODE,delta=1
    45                           	psect	text29,global,reloc=2,class=CODE,delta=1
    46                           	psect	text30,global,reloc=2,class=CODE,delta=1
    47                           	psect	text31,global,reloc=2,class=CODE,delta=1
    48                           	psect	text32,global,reloc=2,class=CODE,delta=1
    49                           	psect	text33,global,reloc=2,class=CODE,delta=1
    50                           	psect	text34,global,reloc=2,class=CODE,delta=1
    51                           	psect	text35,global,reloc=2,class=CODE,delta=1
    52                           	psect	intsave_regs,global,class=BIGRAM,space=1,delta=1,noexec
    53                           	psect	rparam,global,class=COMRAM,space=1,delta=1,noexec
    54                           	psect	temp,global,ovrld,common,class=COMRAM,space=1,delta=1
    55                           	psect	idloc,global,abs,ovrld,class=IDLOC,space=5,delta=1,noexec
    56                           	psect	config,global,abs,ovrld,class=CONFIG,space=4,delta=1,noexec
    57  0000                     
    58                           ; Version 2.40
    59                           ; Generated 17/11/2021 GMT
    60                           ; 
    61                           ; Copyright © 2021, Microchip Technology Inc. and its subsidiaries ("Microchip")
    62                           ; All rights reserved.
    63                           ; 
    64                           ; This software is developed by Microchip Technology Inc. and its subsidiaries ("Microch
      +                          ip").
    65                           ; 
    66                           ; Redistribution and use in source and binary forms, with or without modification, are
    67                           ; permitted provided that the following conditions are met:
    68                           ; 
    69                           ;     1. Redistributions of source code must retain the above copyright notice, this lis
      +                          t of
    70                           ;        conditions and the following disclaimer.
    71                           ; 
    72                           ;     2. Redistributions in binary form must reproduce the above copyright notice, this 
      +                          list
    73                           ;        of conditions and the following disclaimer in the documentation and/or other
    74                           ;        materials provided with the distribution. Publication is not required when
    75                           ;        this file is used in an embedded application.
    76                           ; 
    77                           ;     3. Microchip's name may not be used to endorse or promote products derived from th
      +                          is
    78                           ;        software without specific prior written permission.
    79                           ; 
    80                           ; THIS SOFTWARE IS PROVIDED BY MICROCHIP "AS IS" AND ANY EXPRESS OR IMPLIED WARRANTIES,
    81                           ; INCLUDING, BUT NOT LIMITED TO, THE IMPLIED WARRANTIES OF MERCHANTABILITY AND FITNESS F
      +                          OR
    82                           ; PURPOSE ARE DISCLAIMED.  IN NO EVENT SHALL MICROCHIP BE LIABLE FOR ANY DIRECT, INDIREC
      +                          T,
    83                           ; INCIDENTAL, SPECIAL, EXEMPLARY, OR CONSEQUENTIAL DAMAGES (INCLUDING BUT NOT LIMITED TO
    84                           ; PROCUREMENT OF SUBSTITUTE GOODS OR SERVICES; LOSS OF USE, DATA OR PROFITS; OR BUSINESS
    85                           ; INTERRUPTION) HOWSOEVER CAUSED AND ON ANY THEORY OF LIABILITY, WHETHER IN CONTRACT, ST
      +                          RICT
    86                           ; LIABILITY, OR TORT (INCLUDING NEGLIGENCE OR OTHERWISE) ARISING IN ANY WAY OUT OF THE U
      +                          SE OF
    87                           ; THIS SOFTWARE, EVEN IF ADVISED OF THE POSSIBILITY OF SUCH DAMAGE.
    88                           ; 
    89                           ; 
    90                           ; Code-generator required, PIC18F4620 Definitions
    91                           ; 
    92                           ; SFR Addresses
    93  0000                     
    94                           	psect	idataCOMRAM
    95  002A3C                     __pidataCOMRAM:
    96                           	callstack 0
    97                           
    98                           ;initializer for _RB7_flag
    99  002A3C  01                 	db	1
   100                           
   101                           ;initializer for _RB6_flag
   102  002A3D  01                 	db	1
   103                           
   104                           ;initializer for _RB5_flag
   105  002A3E  01                 	db	1
   106                           
   107                           ;initializer for _RB4_flag
   108  002A3F  01                 	db	1
   109                           
   110                           ;initializer for _ack
   111  002A40  06                 	db	6
   112                           
   113                           	psect	idataBANK0
   114  002882                     __pidataBANK0:
   115                           	callstack 0
   116                           
   117                           ;initializer for _keypad_matrix
   118  002882  37                 	db	55
   119  002883  38                 	db	56
   120  002884  39                 	db	57
   121  002885  2F                 	db	47
   122  002886  34                 	db	52
   123  002887  35                 	db	53
   124  002888  36                 	db	54
   125  002889  2A                 	db	42
   126  00288A  31                 	db	49
   127  00288B  32                 	db	50
   128  00288C  33                 	db	51
   129  00288D  2D                 	db	45
   130  00288E  23                 	db	35
   131  00288F  30                 	db	48
   132  002890  3D                 	db	61
   133  002891  2B                 	db	43
   134                           
   135                           ;initializer for _port_registers
   136  002892  80                 	db	128
   137  002893  0F                 	db	15
   138  002894  81                 	db	129
   139  002895  0F                 	db	15
   140  002896  82                 	db	130
   141  002897  0F                 	db	15
   142  002898  83                 	db	131
   143  002899  0F                 	db	15
   144  00289A  84                 	db	132
   145  00289B  0F                 	db	15
   146                           
   147                           ;initializer for _lat_registers
   148  00289C  89                 	db	137
   149  00289D  0F                 	db	15
   150  00289E  8A                 	db	138
   151  00289F  0F                 	db	15
   152  0028A0  8B                 	db	139
   153  0028A1  0F                 	db	15
   154  0028A2  8C                 	db	140
   155  0028A3  0F                 	db	15
   156  0028A4  8D                 	db	141
   157  0028A5  0F                 	db	15
   158                           
   159                           ;initializer for _tris_registers
   160  0028A6  92                 	db	146
   161  0028A7  0F                 	db	15
   162  0028A8  93                 	db	147
   163  0028A9  0F                 	db	15
   164  0028AA  94                 	db	148
   165  0028AB  0F                 	db	15
   166  0028AC  95                 	db	149
   167  0028AD  0F                 	db	15
   168  0028AE  96                 	db	150
   169  0028AF  0F                 	db	15
   170                           
   171                           ;initializer for _i2c_obj
   172  0028B0  86A0               	dw	34464
   173  0028B2  0001               	dw	1
   174  0028B4  08                 	db	8
   175  0028B5  00                 	db	0
   176  0028B6  03                 	db	3
   177  0028B7  00                 	db	0
   178  0028B8  00                 	db	0
   179  0028B9  00                 	db	0
   180  0028BA  00                 	db	0
   181  0028BB  00                 	db	0
   182  0028BC  00                 	db	0
   183                           
   184                           ;initializer for _s1_obj
   185  0028BD  80                 	db	128
   186  0028BE  79                 	db	121
   187  0028BF  21                 	db	33
   188  0028C0  04                 	db	4
   189  0000                     _SPBRGH	set	4016
   190  0000                     _SPBRG	set	4015
   191  0000                     _BAUDCONbits	set	4024
   192  0000                     _TXSTAbits	set	4012
   193  0000                     _RCREG	set	4014
   194  0000                     _TXREG	set	4013
   195  0000                     _TXSTA1bits	set	4012
   196  0000                     _RCSTAbits	set	4011
   197  0000                     _TMR3L	set	4018
   198  0000                     _TMR3H	set	4019
   199  0000                     _TMR2	set	4044
   200  0000                     _T2CONbits	set	4042
   201  0000                     _TMR1L	set	4046
   202  0000                     _TMR1H	set	4047
   203  0000                     _T1CONbits	set	4045
   204  0000                     _TMR0L	set	4054
   205  0000                     _TMR0H	set	4055
   206  0000                     _T0CONbits	set	4053
   207  0000                     _PORTBbits	set	3969
   208  0000                     _INTCON2bits	set	4081
   209  0000                     _INTCON3bits	set	4080
   210  0000                     _TRISCbits	set	3988
   211  0000                     _PIR2bits	set	4001
   212  0000                     _SSPBUF	set	4041
   213  0000                     _PIE2bits	set	4000
   214  0000                     _SSPSTATbits	set	4039
   215  0000                     _SSPADD	set	4040
   216  0000                     _SSPCON2bits	set	4037
   217  0000                     _SSPCON1bits	set	4038
   218  0000                     _EECON2	set	4007
   219  0000                     _EECON1bits	set	4006
   220  0000                     _EEDATA	set	4008
   221  0000                     _EEADR	set	4009
   222  0000                     _EEADRH	set	4010
   223  0000                     _T3CONbits	set	4017
   224  0000                     _CCPR1H	set	4031
   225  0000                     _CCPR1L	set	4030
   226  0000                     _CCP1CONbits	set	4029
   227  0000                     _ADCON1bits	set	4033
   228  0000                     _ADRESL	set	4035
   229  0000                     _ADRESH	set	4036
   230  0000                     _PIR1bits	set	3998
   231  0000                     _INTCONbits	set	4082
   232  0000                     _PIE1bits	set	3997
   233  0000                     _ADCON2bits	set	4032
   234  0000                     _ADCON0bits	set	4034
   235  0000                     _PORTE	set	3972
   236  0000                     _PORTD	set	3971
   237  0000                     _PORTC	set	3970
   238  0000                     _PORTB	set	3969
   239  0000                     _PORTA	set	3968
   240  0000                     _LATE	set	3981
   241  0000                     _LATD	set	3980
   242  0000                     _LATC	set	3979
   243  0000                     _LATB	set	3978
   244  0000                     _LATA	set	3977
   245  0000                     _TRISD	set	3989
   246  0000                     _TRISC	set	3988
   247  0000                     _TRISB	set	3987
   248  0000                     _TRISE	set	3990
   249  0000                     _TRISA	set	3986
   250                           
   251                           	psect	smallconst
   252  001000                     __psmallconst:
   253                           	callstack 0
   254  001000  00                 	db	0
   255  001001                     STR_1:
   256  001001  25                 	db	37
   257  001002  69                 	db	105	;'i'
   258  001003  00                 	db	0
   259  001004  00                 	db	0	; dummy byte at the end
   260  0000                     
   261                           ; #config settings
   262                           
   263                           	psect	cinit
   264  0027CE                     __pcinit:
   265                           	callstack 0
   266  0027CE                     start_initialization:
   267                           	callstack 0
   268  0027CE                     __initialization:
   269                           	callstack 0
   270                           
   271                           ; Initialize objects allocated to BANK0 (63 bytes)
   272                           ; load TBLPTR registers with __pidataBANK0
   273  0027CE  0E82               	movlw	low __pidataBANK0
   274  0027D0  6EF6               	movwf	tblptrl,c
   275  0027D2  0E28               	movlw	high __pidataBANK0
   276  0027D4  6EF7               	movwf	tblptrh,c
   277  0027D6  0E00               	movlw	low (__pidataBANK0 shr (0+16))
   278  0027D8  6EF8               	movwf	tblptru,c
   279  0027DA  EE00  F080         	lfsr	0,__pdataBANK0
   280  0027DE  EE10 F03F          	lfsr	1,63
   281  0027E2                     copy_data0:
   282  0027E2  0009               	tblrd		*+
   283  0027E4  CFF5 FFEE          	movff	tablat,postinc0
   284  0027E8  50E5               	movf	postdec1,w,c
   285  0027EA  50E1               	movf	fsr1l,w,c
   286  0027EC  E1FA               	bnz	copy_data0
   287                           
   288                           ; Initialize objects allocated to COMRAM (5 bytes)
   289                           ; load TBLPTR registers with __pidataCOMRAM
   290  0027EE  0E3C               	movlw	low __pidataCOMRAM
   291  0027F0  6EF6               	movwf	tblptrl,c
   292  0027F2  0E2A               	movlw	high __pidataCOMRAM
   293  0027F4  6EF7               	movwf	tblptrh,c
   294  0027F6  0E00               	movlw	low (__pidataCOMRAM shr (0+16))
   295  0027F8  6EF8               	movwf	tblptru,c
   296  0027FA  EE00  F077         	lfsr	0,__pdataCOMRAM
   297  0027FE  EE10 F005          	lfsr	1,5
   298  002802                     copy_data1:
   299  002802  0009               	tblrd		*+
   300  002804  CFF5 FFEE          	movff	tablat,postinc0
   301  002808  50E5               	movf	postdec1,w,c
   302  00280A  50E1               	movf	fsr1l,w,c
   303  00280C  E1FA               	bnz	copy_data1
   304                           
   305                           ; Clear objects allocated to BANK0 (42 bytes)
   306  00280E  EE00  F0BF         	lfsr	0,__pbssBANK0
   307  002812  0E2A               	movlw	42
   308  002814                     clear_0:
   309  002814  6AEE               	clrf	postinc0,c
   310  002816  06E8               	decf	wreg,f,c
   311  002818  E1FD               	bnz	clear_0
   312                           
   313                           ; Clear objects allocated to COMRAM (37 bytes)
   314  00281A  EE00  F052         	lfsr	0,__pbssCOMRAM
   315  00281E  0E25               	movlw	37
   316  002820                     clear_1:
   317  002820  6AEE               	clrf	postinc0,c
   318  002822  06E8               	decf	wreg,f,c
   319  002824  E1FD               	bnz	clear_1
   320  002826                     end_of_initialization:
   321                           	callstack 0
   322  002826                     __end_of__initialization:
   323                           	callstack 0
   324  002826  907C               	bcf	int$flags,0,c	;clear compiler interrupt flag (level 1)
   325  002828  927C               	bcf	int$flags,1,c	;clear compiler interrupt flag (level 2)
   326  00282A  0100               	movlb	0
   327  00282C  EF49  F013         	goto	_main	;jump to C main() function
   328                           
   329                           	psect	bssCOMRAM
   330  000052                     __pbssCOMRAM:
   331                           	callstack 0
   332  000052                     _Timer3_PreLoaded_Value_Store:
   333                           	callstack 0
   334  000052                     	ds	2
   335  000054                     _Timer1_PreLoaded_Value_Store:
   336                           	callstack 0
   337  000054                     	ds	2
   338  000056                     _Timer0_PreLoaded_Value_Store:
   339                           	callstack 0
   340  000056                     	ds	2
   341  000058                     _RB4_Interrupt_Handler_High:
   342                           	callstack 0
   343  000058                     	ds	2
   344  00005A                     _RB4_Interrupt_Handler_Low:
   345                           	callstack 0
   346  00005A                     	ds	2
   347  00005C                     _INT2_Interrupt_Handler:
   348                           	callstack 0
   349  00005C                     	ds	2
   350  00005E                     _INT1_Interrupt_Handler:
   351                           	callstack 0
   352  00005E                     	ds	2
   353  000060                     _INT0_Interrupt_Handler:
   354                           	callstack 0
   355  000060                     	ds	2
   356  000062                     _I2C_Report_Write_Collision:
   357                           	callstack 0
   358  000062                     	ds	2
   359  000064                     _I2C_DefaultInterruptHandler:
   360                           	callstack 0
   361  000064                     	ds	2
   362  000066                     CCP1_Compare_Mode_Set_Value@F3194:
   363                           	callstack 0
   364  000066                     	ds	2
   365  000068                     _CCP1_InterruptHandler:
   366                           	callstack 0
   367  000068                     	ds	2
   368  00006A                     _ADC_Interrupt_Handler:
   369                           	callstack 0
   370  00006A                     	ds	2
   371  00006C                     _storedata:
   372                           	callstack 0
   373  00006C                     	ds	1
   374  00006D                     _angle:
   375                           	callstack 0
   376  00006D                     	ds	1
   377  00006E                     _slave_address:
   378                           	callstack 0
   379  00006E                     	ds	1
   380  00006F                     _Timer2_PreLoaded_Value_Store:
   381                           	callstack 0
   382  00006F                     	ds	1
   383  000070                     relay_turn_off@F3046:
   384                           	callstack 0
   385  000070                     	ds	1
   386  000071                     relay_turn_on@F3041:
   387                           	callstack 0
   388  000071                     	ds	1
   389  000072                     relay_initialize@F3036:
   390                           	callstack 0
   391  000072                     	ds	1
   392  000073                     led_turn_toggle@F3053:
   393                           	callstack 0
   394  000073                     	ds	1
   395  000074                     led_turn_off@F3048:
   396                           	callstack 0
   397  000074                     	ds	1
   398  000075                     led_turn_on@F3043:
   399                           	callstack 0
   400  000075                     	ds	1
   401  000076                     led_initialize@F3038:
   402                           	callstack 0
   403  000076                     	ds	1
   404                           
   405                           	psect	dataCOMRAM
   406  000077                     __pdataCOMRAM:
   407                           	callstack 0
   408  000077                     _RB7_flag:
   409                           	callstack 0
   410  000077                     	ds	1
   411  000078                     _RB6_flag:
   412                           	callstack 0
   413  000078                     	ds	1
   414  000079                     _RB5_flag:
   415                           	callstack 0
   416  000079                     	ds	1
   417  00007A                     _RB4_flag:
   418                           	callstack 0
   419  00007A                     	ds	1
   420  00007B                     _ack:
   421                           	callstack 0
   422  00007B                     	ds	1
   423                           
   424                           	psect	bssBANK0
   425  0000BF                     __pbssBANK0:
   426                           	callstack 0
   427  0000BF                     	ds	6
   428  0000C5                     _master_counter:
   429                           	callstack 0
   430  0000C5                     	ds	4
   431  0000C9                     _i:
   432                           	callstack 0
   433  0000C9                     	ds	2
   434  0000CB                     _EUSART_RX__Overrun_Interrupt_Handler:
   435                           	callstack 0
   436  0000CB                     	ds	2
   437  0000CD                     _EUSART_RX__Framing_Interrupt_Handler:
   438                           	callstack 0
   439  0000CD                     	ds	2
   440  0000CF                     _EUSART_RX_Interrupt_Handler:
   441                           	callstack 0
   442  0000CF                     	ds	2
   443  0000D1                     _EUSART_TX_Interrupt_Handler:
   444                           	callstack 0
   445  0000D1                     	ds	2
   446  0000D3                     _Timer3_Interrupt_Handler:
   447                           	callstack 0
   448  0000D3                     	ds	2
   449  0000D5                     _Timer2_Interrupt_Handler:
   450                           	callstack 0
   451  0000D5                     	ds	2
   452  0000D7                     _Timer1_Interrupt_Handler:
   453                           	callstack 0
   454  0000D7                     	ds	2
   455  0000D9                     _Timer0_Interrupt_Handler:
   456                           	callstack 0
   457  0000D9                     	ds	2
   458  0000DB                     _RB7_Interrupt_Handler_High:
   459                           	callstack 0
   460  0000DB                     	ds	2
   461  0000DD                     _RB7_Interrupt_Handler_Low:
   462                           	callstack 0
   463  0000DD                     	ds	2
   464  0000DF                     _RB6_Interrupt_Handler_High:
   465                           	callstack 0
   466  0000DF                     	ds	2
   467  0000E1                     _RB6_Interrupt_Handler_Low:
   468                           	callstack 0
   469  0000E1                     	ds	2
   470  0000E3                     _RB5_Interrupt_Handler_High:
   471                           	callstack 0
   472  0000E3                     	ds	2
   473  0000E5                     _RB5_Interrupt_Handler_Low:
   474                           	callstack 0
   475  0000E5                     	ds	2
   476  0000E7                     _I2C_Report_Receive_Overflow:
   477                           	callstack 0
   478  0000E7                     	ds	2
   479                           
   480                           	psect	dataBANK0
   481  000080                     __pdataBANK0:
   482                           	callstack 0
   483  000080                     _keypad_matrix:
   484                           	callstack 0
   485  000080                     	ds	16
   486  000090                     _port_registers:
   487                           	callstack 0
   488  000090                     	ds	10
   489  00009A                     _lat_registers:
   490                           	callstack 0
   491  00009A                     	ds	10
   492  0000A4                     _tris_registers:
   493                           	callstack 0
   494  0000A4                     	ds	10
   495  0000AE                     _i2c_obj:
   496                           	callstack 0
   497  0000AE                     	ds	13
   498  0000BB                     _s1_obj:
   499                           	callstack 0
   500  0000BB                     	ds	4
   501                           
   502                           	psect	cstackBANK0
   503  0000E9                     __pcstackBANK0:
   504                           	callstack 0
   505  0000E9                     main@i:
   506                           	callstack 0
   507                           
   508                           ; 2 bytes @ 0x0
   509  0000E9                     	ds	2
   510                           
   511                           	psect	cstackCOMRAM
   512  000001                     __pcstackCOMRAM:
   513                           	callstack 0
   514  000001                     RB4_ISR@RB4_source:
   515                           	callstack 0
   516  000001                     RB5_ISR@RB5_source:
   517                           	callstack 0
   518  000001                     RB6_ISR@RB6_source:
   519                           	callstack 0
   520  000001                     RB7_ISR@RB7_source:
   521                           	callstack 0
   522                           
   523                           ; 1 bytes @ 0x0
   524  000001                     	ds	2
   525  000003                     ?___xxtofl:
   526                           	callstack 0
   527  000003                     MSSP_I2C_Master_Send_Start@i2c_obj:
   528                           	callstack 0
   529  000003                     MSSP_I2C_Master_Send_Stop@i2c_obj:
   530                           	callstack 0
   531  000003                     MSSP_I2C_Master_Write_Blocking@i2c_obj:
   532                           	callstack 0
   533  000003                     I2C_Slave_Mode_Clock_Configurations@i2c_obj:
   534                           	callstack 0
   535  000003                     I2C_Interrupt_configuration@i2c_obj:
   536                           	callstack 0
   537  000003                     ___xxtofl@val:
   538                           	callstack 0
   539                           
   540                           ; 4 bytes @ 0x2
   541  000003                     	ds	2
   542  000005                     ??_I2C_Slave_Mode_Clock_Configurations:
   543  000005                     MSSP_I2C_Master_Write_Blocking@i2c_data:
   544                           	callstack 0
   545                           
   546                           ; 1 bytes @ 0x4
   547  000005                     	ds	1
   548  000006                     MSSP_I2C_Master_Write_Blocking@_ack:
   549                           	callstack 0
   550                           
   551                           ; 2 bytes @ 0x5
   552  000006                     	ds	1
   553  000007                     ??___xxtofl:
   554                           
   555                           ; 1 bytes @ 0x6
   556  000007                     	ds	1
   557  000008                     
   558                           ; 1 bytes @ 0x7
   559  000008                     	ds	1
   560  000009                     PCA_Write_Reg@i2c_obj:
   561                           	callstack 0
   562                           
   563                           ; 2 bytes @ 0x8
   564  000009                     	ds	2
   565  00000B                     PCA_Write_Reg@slave_address:
   566                           	callstack 0
   567  00000B                     ___xxtofl@sign:
   568                           	callstack 0
   569                           
   570                           ; 1 bytes @ 0xA
   571  00000B                     	ds	1
   572  00000C                     PCA_Write_Reg@reg_address:
   573                           	callstack 0
   574  00000C                     ___xxtofl@exp:
   575                           	callstack 0
   576                           
   577                           ; 1 bytes @ 0xB
   578  00000C                     	ds	1
   579  00000D                     PCA_Write_Reg@data:
   580                           	callstack 0
   581  00000D                     ___xxtofl@arg:
   582                           	callstack 0
   583                           
   584                           ; 4 bytes @ 0xC
   585  00000D                     	ds	1
   586  00000E                     PCA_Write_Reg@ack:
   587                           	callstack 0
   588                           
   589                           ; 1 bytes @ 0xD
   590  00000E                     	ds	3
   591  000011                     ?___fldiv:
   592                           	callstack 0
   593  000011                     ?___flmul:
   594                           	callstack 0
   595  000011                     ___fldiv@b:
   596                           	callstack 0
   597  000011                     ___flmul@b:
   598                           	callstack 0
   599                           
   600                           ; 4 bytes @ 0x10
   601  000011                     	ds	4
   602  000015                     ___fldiv@a:
   603                           	callstack 0
   604  000015                     ___flmul@a:
   605                           	callstack 0
   606                           
   607                           ; 4 bytes @ 0x14
   608  000015                     	ds	4
   609  000019                     ??___fldiv:
   610  000019                     ??___flmul:
   611                           
   612                           ; 1 bytes @ 0x18
   613  000019                     	ds	4
   614  00001D                     ___flmul@sign:
   615                           	callstack 0
   616  00001D                     ___fldiv@rem:
   617                           	callstack 0
   618                           
   619                           ; 4 bytes @ 0x1C
   620  00001D                     	ds	1
   621  00001E                     ___flmul@aexp:
   622                           	callstack 0
   623                           
   624                           ; 1 bytes @ 0x1D
   625  00001E                     	ds	1
   626  00001F                     ___flmul@grs:
   627                           	callstack 0
   628                           
   629                           ; 4 bytes @ 0x1E
   630  00001F                     	ds	2
   631  000021                     ___fldiv@sign:
   632                           	callstack 0
   633                           
   634                           ; 1 bytes @ 0x20
   635  000021                     	ds	1
   636  000022                     ___fldiv@new_exp:
   637                           	callstack 0
   638                           
   639                           ; 2 bytes @ 0x21
   640  000022                     	ds	1
   641  000023                     ___flmul@bexp:
   642                           	callstack 0
   643                           
   644                           ; 1 bytes @ 0x22
   645  000023                     	ds	1
   646  000024                     ___fldiv@grs:
   647                           	callstack 0
   648  000024                     ___flmul@prod:
   649                           	callstack 0
   650                           
   651                           ; 4 bytes @ 0x23
   652  000024                     	ds	4
   653  000028                     ___fldiv@bexp:
   654                           	callstack 0
   655  000028                     ___flmul@temp:
   656                           	callstack 0
   657                           
   658                           ; 2 bytes @ 0x27
   659  000028                     	ds	1
   660  000029                     ___fldiv@aexp:
   661                           	callstack 0
   662                           
   663                           ; 1 bytes @ 0x28
   664  000029                     	ds	1
   665  00002A                     ?___fladd:
   666                           	callstack 0
   667  00002A                     ___fladd@b:
   668                           	callstack 0
   669                           
   670                           ; 4 bytes @ 0x29
   671  00002A                     	ds	4
   672  00002E                     ___fladd@a:
   673                           	callstack 0
   674                           
   675                           ; 4 bytes @ 0x2D
   676  00002E                     	ds	4
   677  000032                     ??___fladd:
   678                           
   679                           ; 1 bytes @ 0x31
   680  000032                     	ds	4
   681  000036                     ___fladd@signs:
   682                           	callstack 0
   683                           
   684                           ; 1 bytes @ 0x35
   685  000036                     	ds	1
   686  000037                     ___fladd@aexp:
   687                           	callstack 0
   688                           
   689                           ; 1 bytes @ 0x36
   690  000037                     	ds	1
   691  000038                     ___fladd@bexp:
   692                           	callstack 0
   693                           
   694                           ; 1 bytes @ 0x37
   695  000038                     	ds	1
   696  000039                     ___fladd@grs:
   697                           	callstack 0
   698                           
   699                           ; 1 bytes @ 0x38
   700  000039                     	ds	1
   701  00003A                     ?___fltol:
   702                           	callstack 0
   703  00003A                     ___fltol@f1:
   704                           	callstack 0
   705                           
   706                           ; 4 bytes @ 0x39
   707  00003A                     	ds	4
   708  00003E                     ??___fltol:
   709                           
   710                           ; 1 bytes @ 0x3D
   711  00003E                     	ds	4
   712  000042                     ___fltol@sign1:
   713                           	callstack 0
   714                           
   715                           ; 1 bytes @ 0x41
   716  000042                     	ds	1
   717  000043                     ___fltol@exp1:
   718                           	callstack 0
   719                           
   720                           ; 1 bytes @ 0x42
   721  000043                     	ds	1
   722  000044                     Servo_SetAngle@i2c_obj:
   723                           	callstack 0
   724  000044                     I2C_Master_Mode_Clock_Configurations@i2c_obj:
   725                           	callstack 0
   726                           
   727                           ; 2 bytes @ 0x43
   728  000044                     	ds	2
   729  000046                     ??_I2C_Master_Mode_Clock_Configurations:
   730  000046                     Servo_SetAngle@servo_driver_obj:
   731                           	callstack 0
   732                           
   733                           ; 2 bytes @ 0x45
   734  000046                     	ds	2
   735  000048                     Servo_SetAngle@servo_no:
   736                           	callstack 0
   737  000048                     MSSP_I2C_Init@i2c_obj:
   738                           	callstack 0
   739                           
   740                           ; 2 bytes @ 0x47
   741  000048                     	ds	1
   742  000049                     Servo_SetAngle@angle:
   743                           	callstack 0
   744                           
   745                           ; 1 bytes @ 0x48
   746  000049                     	ds	1
   747  00004A                     
   748                           ; 1 bytes @ 0x49
   749  00004A                     	ds	1
   750  00004B                     ServoDriver_Init@i2c_obj:
   751                           	callstack 0
   752  00004B                     Servo_SetAngle@angle_in_reg:
   753                           	callstack 0
   754                           
   755                           ; 2 bytes @ 0x4A
   756  00004B                     	ds	2
   757  00004D                     Servo_SetAngle@reg_addrees:
   758                           	callstack 0
   759  00004D                     ServoDriver_Init@servo_driver_obj:
   760                           	callstack 0
   761                           
   762                           ; 2 bytes @ 0x4C
   763  00004D                     	ds	2
   764  00004F                     
   765                           ; 1 bytes @ 0x4E
   766  00004F                     	ds	1
   767  000050                     ??_main:
   768                           
   769                           ; 1 bytes @ 0x4F
   770  000050                     	ds	2
   771                           
   772 ;;
   773 ;;Main: autosize = 0, tempsize = 2, incstack = 0, save=0
   774 ;;
   775 ;; *************** function _main *****************
   776 ;; Defined at:
   777 ;;		line 50 in file "application.c"
   778 ;; Parameters:    Size  Location     Type
   779 ;;		None
   780 ;; Auto vars:     Size  Location     Type
   781 ;;  i               2    0[BANK0 ] int 
   782 ;; Return value:  Size  Location     Type
   783 ;;                  2  1632[None  ] int 
   784 ;; Registers used:
   785 ;;		wreg, fsr2l, fsr2h, status,2, status,0, prodl, prodh, cstack
   786 ;; Tracked objects:
   787 ;;		On entry : 0/0
   788 ;;		On exit  : 0/0
   789 ;;		Unchanged: 0/0
   790 ;; Data sizes:     COMRAM   BANK0   BANK1   BANK2   BANK3   BANK4   BANK5   BANK6   BANK7   BANK8   BANK9  BANK10  BANK1
      +1  BANK12  BANK13  BANK14  BANK15
   791 ;;      Params:         0       0       0       0       0       0       0       0       0       0       0       0       
      +0       0       0       0       0
   792 ;;      Locals:         0       2       0       0       0       0       0       0       0       0       0       0       
      +0       0       0       0       0
   793 ;;      Temps:          2       0       0       0       0       0       0       0       0       0       0       0       
      +0       0       0       0       0
   794 ;;      Totals:         2       2       0       0       0       0       0       0       0       0       0       0       
      +0       0       0       0       0
   795 ;;Total ram usage:        4 bytes
   796 ;; Hardware stack levels required when called:    7
   797 ;; This function calls:
   798 ;;		_Servo_SetAngle
   799 ;;		_application_intialize
   800 ;; This function is called by:
   801 ;;		Startup code after reset
   802 ;; This function uses a non-reentrant model
   803 ;;
   804                           
   805                           	psect	text0
   806  002692                     __ptext0:
   807                           	callstack 0
   808  002692                     _main:
   809                           	callstack 24
   810  002692                     
   811                           ;application.c: 52:     application_intialize();
   812  002692  ECB2  F014         	call	_application_intialize	;wreg free
   813  002696                     
   814                           ;application.c: 54:     for(int i=0;i<16;i++)
   815  002696  0E00               	movlw	0
   816  002698  0100               	movlb	0	; () banked
   817  00269A  6FEA               	movwf	(main@i+1)& (0+255),b
   818  00269C  0E00               	movlw	0
   819  00269E  6FE9               	movwf	main@i& (0+255),b
   820  0026A0                     l8468:
   821                           
   822                           ; BSR set to: 0
   823                           ;application.c: 55:     {;application.c: 56:         Servo_SetAngle(&i2c_obj,&s1_obj,i,a
      +                          ngle);
   824  0026A0  0EAE               	movlw	low _i2c_obj
   825  0026A2  6E44               	movwf	Servo_SetAngle@i2c_obj^0,c
   826  0026A4  0E00               	movlw	high _i2c_obj
   827  0026A6  6E45               	movwf	(Servo_SetAngle@i2c_obj+1)^0,c
   828  0026A8  0EBB               	movlw	low _s1_obj
   829  0026AA  6E46               	movwf	Servo_SetAngle@servo_driver_obj^0,c
   830  0026AC  0E00               	movlw	high _s1_obj
   831  0026AE  6E47               	movwf	(Servo_SetAngle@servo_driver_obj+1)^0,c
   832  0026B0  C0E9  F048         	movff	main@i,Servo_SetAngle@servo_no
   833  0026B4  C06D  F049         	movff	_angle,Servo_SetAngle@angle
   834  0026B8  EC28  F012         	call	_Servo_SetAngle	;wreg free
   835  0026BC                     
   836                           ;application.c: 57:         _delay((unsigned long)((1000)*(8000000/4000.0)));
   837  0026BC  0E0B               	movlw	11
   838  0026BE  6E51               	movwf	(??_main+1)^0,c
   839  0026C0  0E26               	movlw	38
   840  0026C2  6E50               	movwf	??_main^0,c
   841  0026C4  0E5E               	movlw	94
   842  0026C6                     u8707:
   843  0026C6  2EE8               	decfsz	wreg,f,c
   844  0026C8  D7FE               	bra	u8707
   845  0026CA  2E50               	decfsz	??_main^0,f,c
   846  0026CC  D7FC               	bra	u8707
   847  0026CE  2E51               	decfsz	(??_main+1)^0,f,c
   848  0026D0  D7FA               	bra	u8707
   849  0026D2                     
   850                           ;application.c: 58:         angle+=15;
   851  0026D2  0E0F               	movlw	15
   852  0026D4  266D               	addwf	_angle^0,f,c
   853  0026D6                     
   854                           ;application.c: 59:     }
   855  0026D6  0100               	movlb	0	; () banked
   856  0026D8  4BE9               	infsnz	main@i& (0+255),f,b
   857  0026DA  2BEA               	incf	(main@i+1)& (0+255),f,b
   858  0026DC                     
   859                           ; BSR set to: 0
   860  0026DC  BFEA               	btfsc	(main@i+1)& (0+255),7,b
   861  0026DE  EF7A  F013         	goto	u8691
   862  0026E2  51EA               	movf	(main@i+1)& (0+255),w,b
   863  0026E4  E109               	bnz	u8690
   864  0026E6  0E10               	movlw	16
   865  0026E8  5DE9               	subwf	main@i& (0+255),w,b
   866  0026EA  A0D8               	btfss	status,0,c
   867  0026EC  EF7A  F013         	goto	u8691
   868  0026F0  EF7C  F013         	goto	u8690
   869  0026F4                     u8691:
   870  0026F4  EF50  F013         	goto	l8468
   871  0026F8                     u8690:
   872  0026F8                     l1635:
   873  0026F8  EF7C  F013         	goto	l1635
   874  0026FC  EF07  F000         	goto	start
   875  002700                     __end_of_main:
   876                           	callstack 0
   877                           
   878 ;; *************** function _application_intialize *****************
   879 ;; Defined at:
   880 ;;		line 89 in file "application.c"
   881 ;; Parameters:    Size  Location     Type
   882 ;;		None
   883 ;; Auto vars:     Size  Location     Type
   884 ;;		None
   885 ;; Return value:  Size  Location     Type
   886 ;;                  1    wreg      void 
   887 ;; Registers used:
   888 ;;		wreg, fsr2l, fsr2h, status,2, status,0, cstack
   889 ;; Tracked objects:
   890 ;;		On entry : 0/0
   891 ;;		On exit  : 0/0
   892 ;;		Unchanged: 0/0
   893 ;; Data sizes:     COMRAM   BANK0   BANK1   BANK2   BANK3   BANK4   BANK5   BANK6   BANK7   BANK8   BANK9  BANK10  BANK1
      +1  BANK12  BANK13  BANK14  BANK15
   894 ;;      Params:         0       0       0       0       0       0       0       0       0       0       0       0       
      +0       0       0       0       0
   895 ;;      Locals:         0       0       0       0       0       0       0       0       0       0       0       0       
      +0       0       0       0       0
   896 ;;      Temps:          0       0       0       0       0       0       0       0       0       0       0       0       
      +0       0       0       0       0
   897 ;;      Totals:         0       0       0       0       0       0       0       0       0       0       0       0       
      +0       0       0       0       0
   898 ;;Total ram usage:        0 bytes
   899 ;; Hardware stack levels used:    1
   900 ;; Hardware stack levels required when called:    6
   901 ;; This function calls:
   902 ;;		_MSSP_I2C_Init
   903 ;;		_ServoDriver_Init
   904 ;; This function is called by:
   905 ;;		_main
   906 ;; This function uses a non-reentrant model
   907 ;;
   908                           
   909                           	psect	text1
   910  002964                     __ptext1:
   911                           	callstack 0
   912  002964                     _application_intialize:
   913                           	callstack 24
   914  002964                     
   915                           ;application.c: 91:     MSSP_I2C_Init(&i2c_obj);
   916  002964  0EAE               	movlw	low _i2c_obj
   917  002966  6E48               	movwf	MSSP_I2C_Init@i2c_obj^0,c
   918  002968  0E00               	movlw	high _i2c_obj
   919  00296A  6E49               	movwf	(MSSP_I2C_Init@i2c_obj+1)^0,c
   920  00296C  EC02  F011         	call	_MSSP_I2C_Init	;wreg free
   921                           
   922                           ;application.c: 92:     ServoDriver_Init(&i2c_obj,&s1_obj);
   923  002970  0EAE               	movlw	low _i2c_obj
   924  002972  6E4B               	movwf	ServoDriver_Init@i2c_obj^0,c
   925  002974  0E00               	movlw	high _i2c_obj
   926  002976  6E4C               	movwf	(ServoDriver_Init@i2c_obj+1)^0,c
   927  002978  0EBB               	movlw	low _s1_obj
   928  00297A  6E4D               	movwf	ServoDriver_Init@servo_driver_obj^0,c
   929  00297C  0E00               	movlw	high _s1_obj
   930  00297E  6E4E               	movwf	(ServoDriver_Init@servo_driver_obj+1)^0,c
   931  002980  EC94  F012         	call	_ServoDriver_Init	;wreg free
   932  002984  0012               	return		;funcret
   933  002986                     __end_of_application_intialize:
   934                           	callstack 0
   935                           
   936 ;; *************** function _ServoDriver_Init *****************
   937 ;; Defined at:
   938 ;;		line 13 in file "ECU/SERVO_MOTOR_I2C/ecu_servo_motor_i2c.c"
   939 ;; Parameters:    Size  Location     Type
   940 ;;  i2c_obj         2   74[COMRAM] PTR const struct .
   941 ;;		 -> i2c_obj(13), 
   942 ;;  servo_driver    2   76[COMRAM] PTR const struct .
   943 ;;		 -> s1_obj(4), 
   944 ;; Auto vars:     Size  Location     Type
   945 ;;  ERRORSTATUS     1    0        unsigned char 
   946 ;; Return value:  Size  Location     Type
   947 ;;                  1    wreg      unsigned char 
   948 ;; Registers used:
   949 ;;		wreg, fsr2l, fsr2h, status,2, status,0, cstack
   950 ;; Tracked objects:
   951 ;;		On entry : 0/0
   952 ;;		On exit  : 0/0
   953 ;;		Unchanged: 0/0
   954 ;; Data sizes:     COMRAM   BANK0   BANK1   BANK2   BANK3   BANK4   BANK5   BANK6   BANK7   BANK8   BANK9  BANK10  BANK1
      +1  BANK12  BANK13  BANK14  BANK15
   955 ;;      Params:         4       0       0       0       0       0       0       0       0       0       0       0       
      +0       0       0       0       0
   956 ;;      Locals:         1       0       0       0       0       0       0       0       0       0       0       0       
      +0       0       0       0       0
   957 ;;      Temps:          0       0       0       0       0       0       0       0       0       0       0       0       
      +0       0       0       0       0
   958 ;;      Totals:         5       0       0       0       0       0       0       0       0       0       0       0       
      +0       0       0       0       0
   959 ;;Total ram usage:        5 bytes
   960 ;; Hardware stack levels used:    1
   961 ;; Hardware stack levels required when called:    5
   962 ;; This function calls:
   963 ;;		_MSSP_I2C_Init
   964 ;;		_PCA_Write_Reg
   965 ;; This function is called by:
   966 ;;		_application_intialize
   967 ;; This function uses a non-reentrant model
   968 ;;
   969                           
   970                           	psect	text2
   971  002528                     __ptext2:
   972                           	callstack 0
   973  002528                     _ServoDriver_Init:
   974                           	callstack 24
   975  002528                     
   976                           ;ECU/SERVO_MOTOR_I2C/ecu_servo_motor_i2c.c: 16:     if ((((void*)0)==i2c_obj)||(((void*)
      +                          0)==servo_driver_obj))
   977  002528  504B               	movf	ServoDriver_Init@i2c_obj^0,w,c
   978  00252A  104C               	iorwf	(ServoDriver_Init@i2c_obj+1)^0,w,c
   979  00252C  B4D8               	btfsc	status,2,c
   980  00252E  EF9B  F012         	goto	u8461
   981  002532  EF9D  F012         	goto	u8460
   982  002536                     u8461:
   983  002536  EFA6  F012         	goto	l8248
   984  00253A                     u8460:
   985  00253A  504D               	movf	ServoDriver_Init@servo_driver_obj^0,w,c
   986  00253C  104E               	iorwf	(ServoDriver_Init@servo_driver_obj+1)^0,w,c
   987  00253E  A4D8               	btfss	status,2,c
   988  002540  EFA4  F012         	goto	u8471
   989  002544  EFA6  F012         	goto	u8470
   990  002548                     u8471:
   991  002548  EFA8  F012         	goto	l8250
   992  00254C                     u8470:
   993  00254C                     l8248:
   994                           
   995                           ;ECU/SERVO_MOTOR_I2C/ecu_servo_motor_i2c.c: 19:     }
   996  00254C  EFF0  F012         	goto	l337
   997  002550                     l8250:
   998                           
   999                           ;ECU/SERVO_MOTOR_I2C/ecu_servo_motor_i2c.c: 21:     {;ECU/SERVO_MOTOR_I2C/ecu_servo_moto
      +                          r_i2c.c: 22:      MSSP_I2C_Init(i2c_obj);
  1000  002550  C04B  F048         	movff	ServoDriver_Init@i2c_obj,MSSP_I2C_Init@i2c_obj
  1001  002554  C04C  F049         	movff	ServoDriver_Init@i2c_obj+1,MSSP_I2C_Init@i2c_obj+1
  1002  002558  EC02  F011         	call	_MSSP_I2C_Init	;wreg free
  1003                           
  1004                           ;ECU/SERVO_MOTOR_I2C/ecu_servo_motor_i2c.c: 23:      PCA_Write_Reg(i2c_obj,servo_driver_
      +                          obj->slave_address,0xFE,servo_driver_obj->frequancy);
  1005  00255C  C04B  F009         	movff	ServoDriver_Init@i2c_obj,PCA_Write_Reg@i2c_obj
  1006  002560  C04C  F00A         	movff	ServoDriver_Init@i2c_obj+1,PCA_Write_Reg@i2c_obj+1
  1007  002564  C04D  FFD9         	movff	ServoDriver_Init@servo_driver_obj,fsr2l
  1008  002568  C04E  FFDA         	movff	ServoDriver_Init@servo_driver_obj+1,fsr2h
  1009  00256C  50DF               	movf	indf2,w,c
  1010  00256E  6E0B               	movwf	PCA_Write_Reg@slave_address^0,c
  1011  002570  0EFE               	movlw	254
  1012  002572  6E0C               	movwf	PCA_Write_Reg@reg_address^0,c
  1013  002574  EE20 F001          	lfsr	2,1
  1014  002578  504D               	movf	ServoDriver_Init@servo_driver_obj^0,w,c
  1015  00257A  26D9               	addwf	fsr2l,f,c
  1016  00257C  504E               	movf	(ServoDriver_Init@servo_driver_obj+1)^0,w,c
  1017  00257E  22DA               	addwfc	fsr2h,f,c
  1018  002580  50DF               	movf	indf2,w,c
  1019  002582  6E0D               	movwf	PCA_Write_Reg@data^0,c
  1020  002584  ECB4  F013         	call	_PCA_Write_Reg	;wreg free
  1021                           
  1022                           ;ECU/SERVO_MOTOR_I2C/ecu_servo_motor_i2c.c: 24:      PCA_Write_Reg(i2c_obj,servo_driver_
      +                          obj->slave_address,0x00,servo_driver_obj->mode_1_cfg);
  1023  002588  C04B  F009         	movff	ServoDriver_Init@i2c_obj,PCA_Write_Reg@i2c_obj
  1024  00258C  C04C  F00A         	movff	ServoDriver_Init@i2c_obj+1,PCA_Write_Reg@i2c_obj+1
  1025  002590  C04D  FFD9         	movff	ServoDriver_Init@servo_driver_obj,fsr2l
  1026  002594  C04E  FFDA         	movff	ServoDriver_Init@servo_driver_obj+1,fsr2h
  1027  002598  50DF               	movf	indf2,w,c
  1028  00259A  6E0B               	movwf	PCA_Write_Reg@slave_address^0,c
  1029  00259C  0E00               	movlw	0
  1030  00259E  6E0C               	movwf	PCA_Write_Reg@reg_address^0,c
  1031  0025A0  EE20 F002          	lfsr	2,2
  1032  0025A4  504D               	movf	ServoDriver_Init@servo_driver_obj^0,w,c
  1033  0025A6  26D9               	addwf	fsr2l,f,c
  1034  0025A8  504E               	movf	(ServoDriver_Init@servo_driver_obj+1)^0,w,c
  1035  0025AA  22DA               	addwfc	fsr2h,f,c
  1036  0025AC  50DF               	movf	indf2,w,c
  1037  0025AE  6E0D               	movwf	PCA_Write_Reg@data^0,c
  1038  0025B0  ECB4  F013         	call	_PCA_Write_Reg	;wreg free
  1039                           
  1040                           ;ECU/SERVO_MOTOR_I2C/ecu_servo_motor_i2c.c: 25:      PCA_Write_Reg(i2c_obj,servo_driver_
      +                          obj->slave_address,0x01,servo_driver_obj->mode_2_cfg);
  1041  0025B4  C04B  F009         	movff	ServoDriver_Init@i2c_obj,PCA_Write_Reg@i2c_obj
  1042  0025B8  C04C  F00A         	movff	ServoDriver_Init@i2c_obj+1,PCA_Write_Reg@i2c_obj+1
  1043  0025BC  C04D  FFD9         	movff	ServoDriver_Init@servo_driver_obj,fsr2l
  1044  0025C0  C04E  FFDA         	movff	ServoDriver_Init@servo_driver_obj+1,fsr2h
  1045  0025C4  50DF               	movf	indf2,w,c
  1046  0025C6  6E0B               	movwf	PCA_Write_Reg@slave_address^0,c
  1047  0025C8  0E01               	movlw	1
  1048  0025CA  6E0C               	movwf	PCA_Write_Reg@reg_address^0,c
  1049  0025CC  EE20 F003          	lfsr	2,3
  1050  0025D0  504D               	movf	ServoDriver_Init@servo_driver_obj^0,w,c
  1051  0025D2  26D9               	addwf	fsr2l,f,c
  1052  0025D4  504E               	movf	(ServoDriver_Init@servo_driver_obj+1)^0,w,c
  1053  0025D6  22DA               	addwfc	fsr2h,f,c
  1054  0025D8  50DF               	movf	indf2,w,c
  1055  0025DA  6E0D               	movwf	PCA_Write_Reg@data^0,c
  1056  0025DC  ECB4  F013         	call	_PCA_Write_Reg	;wreg free
  1057  0025E0                     l337:
  1058  0025E0  0012               	return		;funcret
  1059  0025E2                     __end_of_ServoDriver_Init:
  1060                           	callstack 0
  1061                           
  1062 ;; *************** function _MSSP_I2C_Init *****************
  1063 ;; Defined at:
  1064 ;;		line 23 in file "MCAL/I2C/mcal_i2c.c"
  1065 ;; Parameters:    Size  Location     Type
  1066 ;;  i2c_obj         2   71[COMRAM] PTR const struct .
  1067 ;;		 -> i2c_obj(13), 
  1068 ;; Auto vars:     Size  Location     Type
  1069 ;;  ERRORSTATUS     1    0        unsigned char 
  1070 ;; Return value:  Size  Location     Type
  1071 ;;                  1    wreg      unsigned char 
  1072 ;; Registers used:
  1073 ;;		wreg, fsr2l, fsr2h, status,2, status,0, cstack
  1074 ;; Tracked objects:
  1075 ;;		On entry : 0/0
  1076 ;;		On exit  : 0/0
  1077 ;;		Unchanged: 0/0
  1078 ;; Data sizes:     COMRAM   BANK0   BANK1   BANK2   BANK3   BANK4   BANK5   BANK6   BANK7   BANK8   BANK9  BANK10  BANK1
      +1  BANK12  BANK13  BANK14  BANK15
  1079 ;;      Params:         2       0       0       0       0       0       0       0       0       0       0       0       
      +0       0       0       0       0
  1080 ;;      Locals:         1       0       0       0       0       0       0       0       0       0       0       0       
      +0       0       0       0       0
  1081 ;;      Temps:          0       0       0       0       0       0       0       0       0       0       0       0       
      +0       0       0       0       0
  1082 ;;      Totals:         3       0       0       0       0       0       0       0       0       0       0       0       
      +0       0       0       0       0
  1083 ;;Total ram usage:        3 bytes
  1084 ;; Hardware stack levels used:    1
  1085 ;; Hardware stack levels required when called:    4
  1086 ;; This function calls:
  1087 ;;		_I2C_Interrupt_configuration
  1088 ;;		_I2C_Master_Mode_Clock_Configurations
  1089 ;;		_I2C_Pin_Configurations
  1090 ;;		_I2C_Slave_Mode_Clock_Configurations
  1091 ;; This function is called by:
  1092 ;;		_ServoDriver_Init
  1093 ;;		_application_intialize
  1094 ;; This function uses a non-reentrant model
  1095 ;;
  1096                           
  1097                           	psect	text3
  1098  002204                     __ptext3:
  1099                           	callstack 0
  1100  002204                     _MSSP_I2C_Init:
  1101                           	callstack 24
  1102  002204                     
  1103                           ;MCAL/I2C/mcal_i2c.c: 26:     if (((void*)0)==i2c_obj)
  1104  002204  5048               	movf	MSSP_I2C_Init@i2c_obj^0,w,c
  1105  002206  1049               	iorwf	(MSSP_I2C_Init@i2c_obj+1)^0,w,c
  1106  002208  A4D8               	btfss	status,2,c
  1107  00220A  EF09  F011         	goto	u8371
  1108  00220E  EF0B  F011         	goto	u8370
  1109  002212                     u8371:
  1110  002212  EF0D  F011         	goto	l739
  1111  002216                     u8370:
  1112  002216                     
  1113                           ;MCAL/I2C/mcal_i2c.c: 29:     }
  1114  002216  EFA4  F011         	goto	l757
  1115  00221A                     l739:
  1116                           
  1117                           ;MCAL/I2C/mcal_i2c.c: 31:     {;MCAL/I2C/mcal_i2c.c: 33:         (SSPCON1bits.SSPEN = 0)
      +                          ;
  1118  00221A  9AC6               	bcf	198,5,c	;volatile
  1119  00221C                     
  1120                           ;MCAL/I2C/mcal_i2c.c: 35:         if(1==i2c_obj->i2c_cfg.i2c_mode)
  1121  00221C  EE20 F006          	lfsr	2,6
  1122  002220  5048               	movf	MSSP_I2C_Init@i2c_obj^0,w,c
  1123  002222  26D9               	addwf	fsr2l,f,c
  1124  002224  5049               	movf	(MSSP_I2C_Init@i2c_obj+1)^0,w,c
  1125  002226  22DA               	addwfc	fsr2h,f,c
  1126  002228  A0DF               	btfss	indf2,0,c
  1127  00222A  EF19  F011         	goto	u8381
  1128  00222E  EF1B  F011         	goto	u8380
  1129  002232                     u8381:
  1130  002232  EF23  F011         	goto	l8192
  1131  002236                     u8380:
  1132  002236                     
  1133                           ;MCAL/I2C/mcal_i2c.c: 36:         {;MCAL/I2C/mcal_i2c.c: 38:            I2C_Master_Mode_
      +                          Clock_Configurations(i2c_obj);
  1134  002236  C048  F044         	movff	MSSP_I2C_Init@i2c_obj,I2C_Master_Mode_Clock_Configurations@i2c_obj
  1135  00223A  C049  F045         	movff	MSSP_I2C_Init@i2c_obj+1,I2C_Master_Mode_Clock_Configurations@i2c_obj+1
  1136  00223E  ECF1  F012         	call	_I2C_Master_Mode_Clock_Configurations	;wreg free
  1137                           
  1138                           ;MCAL/I2C/mcal_i2c.c: 39:         }
  1139  002242  EF5F  F011         	goto	l8206
  1140  002246                     l8192:
  1141  002246  EE20 F006          	lfsr	2,6
  1142  00224A  5048               	movf	MSSP_I2C_Init@i2c_obj^0,w,c
  1143  00224C  26D9               	addwf	fsr2l,f,c
  1144  00224E  5049               	movf	(MSSP_I2C_Init@i2c_obj+1)^0,w,c
  1145  002250  22DA               	addwfc	fsr2h,f,c
  1146  002252  B0DF               	btfsc	indf2,0,c
  1147  002254  EF2E  F011         	goto	u8391
  1148  002258  EF30  F011         	goto	u8390
  1149  00225C                     u8391:
  1150  00225C  EF5F  F011         	goto	l8206
  1151  002260                     u8390:
  1152  002260                     
  1153                           ;MCAL/I2C/mcal_i2c.c: 41:         {;MCAL/I2C/mcal_i2c.c: 43:             if(1==i2c_obj->
      +                          i2c_cfg.i2c_general_call)
  1154  002260  EE20 F006          	lfsr	2,6
  1155  002264  5048               	movf	MSSP_I2C_Init@i2c_obj^0,w,c
  1156  002266  26D9               	addwf	fsr2l,f,c
  1157  002268  5049               	movf	(MSSP_I2C_Init@i2c_obj+1)^0,w,c
  1158  00226A  22DA               	addwfc	fsr2h,f,c
  1159  00226C  A6DF               	btfss	indf2,3,c
  1160  00226E  EF3B  F011         	goto	u8401
  1161  002272  EF3D  F011         	goto	u8400
  1162  002276                     u8401:
  1163  002276  EF40  F011         	goto	l8198
  1164  00227A                     u8400:
  1165  00227A                     
  1166                           ;MCAL/I2C/mcal_i2c.c: 44:             {;MCAL/I2C/mcal_i2c.c: 45:                 (SSPCON
      +                          2bits.GCEN = 1);
  1167  00227A  8EC5               	bsf	197,7,c	;volatile
  1168                           
  1169                           ;MCAL/I2C/mcal_i2c.c: 46:             }
  1170  00227C  EF4E  F011         	goto	l745
  1171  002280                     l8198:
  1172  002280  EE20 F006          	lfsr	2,6
  1173  002284  5048               	movf	MSSP_I2C_Init@i2c_obj^0,w,c
  1174  002286  26D9               	addwf	fsr2l,f,c
  1175  002288  5049               	movf	(MSSP_I2C_Init@i2c_obj+1)^0,w,c
  1176  00228A  22DA               	addwfc	fsr2h,f,c
  1177  00228C  B6DF               	btfsc	indf2,3,c
  1178  00228E  EF4B  F011         	goto	u8411
  1179  002292  EF4D  F011         	goto	u8410
  1180  002296                     u8411:
  1181  002296  EF4E  F011         	goto	l745
  1182  00229A                     u8410:
  1183  00229A                     
  1184                           ;MCAL/I2C/mcal_i2c.c: 48:             {;MCAL/I2C/mcal_i2c.c: 49:                 (SSPCON
      +                          2bits.GCEN = 0);
  1185  00229A  9EC5               	bcf	197,7,c	;volatile
  1186  00229C                     l745:
  1187                           
  1188                           ;MCAL/I2C/mcal_i2c.c: 53:              SSPCON1bits.WCOL=0;
  1189  00229C  9EC6               	bcf	198,7,c	;volatile
  1190                           
  1191                           ;MCAL/I2C/mcal_i2c.c: 55:              SSPCON1bits.SSPOV=0;
  1192  00229E  9CC6               	bcf	198,6,c	;volatile
  1193                           
  1194                           ;MCAL/I2C/mcal_i2c.c: 57:              SSPCON1bits.CKP=1;
  1195  0022A0  88C6               	bsf	198,4,c	;volatile
  1196  0022A2                     
  1197                           ;MCAL/I2C/mcal_i2c.c: 59:              SSPADD=i2c_obj->i2c_cfg.i2c_slave_address;
  1198  0022A2  EE20 F005          	lfsr	2,5
  1199  0022A6  5048               	movf	MSSP_I2C_Init@i2c_obj^0,w,c
  1200  0022A8  26D9               	addwf	fsr2l,f,c
  1201  0022AA  5049               	movf	(MSSP_I2C_Init@i2c_obj+1)^0,w,c
  1202  0022AC  22DA               	addwfc	fsr2h,f,c
  1203  0022AE  50DF               	movf	indf2,w,c
  1204  0022B0  6EC8               	movwf	200,c	;volatile
  1205  0022B2                     
  1206                           ;MCAL/I2C/mcal_i2c.c: 61:              I2C_Slave_Mode_Clock_Configurations(i2c_obj);
  1207  0022B2  C048  F003         	movff	MSSP_I2C_Init@i2c_obj,I2C_Slave_Mode_Clock_Configurations@i2c_obj
  1208  0022B6  C049  F004         	movff	MSSP_I2C_Init@i2c_obj+1,I2C_Slave_Mode_Clock_Configurations@i2c_obj+1
  1209  0022BA  EC99  F014         	call	_I2C_Slave_Mode_Clock_Configurations	;wreg free
  1210  0022BE                     l8206:
  1211                           
  1212                           ;MCAL/I2C/mcal_i2c.c: 65:         I2C_Pin_Configurations();
  1213  0022BE  EC1B  F015         	call	_I2C_Pin_Configurations	;wreg free
  1214  0022C2                     
  1215                           ;MCAL/I2C/mcal_i2c.c: 67:         if(1 == i2c_obj->i2c_cfg.i2c_slew_rate){
  1216  0022C2  EE20 F006          	lfsr	2,6
  1217  0022C6  5048               	movf	MSSP_I2C_Init@i2c_obj^0,w,c
  1218  0022C8  26D9               	addwf	fsr2l,f,c
  1219  0022CA  5049               	movf	(MSSP_I2C_Init@i2c_obj+1)^0,w,c
  1220  0022CC  22DA               	addwfc	fsr2h,f,c
  1221  0022CE  A2DF               	btfss	indf2,1,c
  1222  0022D0  EF6C  F011         	goto	u8421
  1223  0022D4  EF6E  F011         	goto	u8420
  1224  0022D8                     u8421:
  1225  0022D8  EF71  F011         	goto	l8212
  1226  0022DC                     u8420:
  1227  0022DC                     
  1228                           ;MCAL/I2C/mcal_i2c.c: 68:             (SSPSTATbits.SMP = 1);
  1229  0022DC  8EC7               	bsf	199,7,c	;volatile
  1230                           
  1231                           ;MCAL/I2C/mcal_i2c.c: 69:         }
  1232  0022DE  EF7F  F011         	goto	l8216
  1233  0022E2                     l8212:
  1234  0022E2  EE20 F006          	lfsr	2,6
  1235  0022E6  5048               	movf	MSSP_I2C_Init@i2c_obj^0,w,c
  1236  0022E8  26D9               	addwf	fsr2l,f,c
  1237  0022EA  5049               	movf	(MSSP_I2C_Init@i2c_obj+1)^0,w,c
  1238  0022EC  22DA               	addwfc	fsr2h,f,c
  1239  0022EE  B2DF               	btfsc	indf2,1,c
  1240  0022F0  EF7C  F011         	goto	u8431
  1241  0022F4  EF7E  F011         	goto	u8430
  1242  0022F8                     u8431:
  1243  0022F8  EF7F  F011         	goto	l8216
  1244  0022FC                     u8430:
  1245  0022FC                     
  1246                           ;MCAL/I2C/mcal_i2c.c: 71:             (SSPSTATbits.SMP = 0);
  1247  0022FC  9EC7               	bcf	199,7,c	;volatile
  1248  0022FE                     l8216:
  1249                           
  1250                           ;MCAL/I2C/mcal_i2c.c: 75:         if(1 == i2c_obj->i2c_cfg.i2c_SMBus_control){
  1251  0022FE  EE20 F006          	lfsr	2,6
  1252  002302  5048               	movf	MSSP_I2C_Init@i2c_obj^0,w,c
  1253  002304  26D9               	addwf	fsr2l,f,c
  1254  002306  5049               	movf	(MSSP_I2C_Init@i2c_obj+1)^0,w,c
  1255  002308  22DA               	addwfc	fsr2h,f,c
  1256  00230A  A4DF               	btfss	indf2,2,c
  1257  00230C  EF8A  F011         	goto	u8441
  1258  002310  EF8C  F011         	goto	u8440
  1259  002314                     u8441:
  1260  002314  EF8F  F011         	goto	l8220
  1261  002318                     u8440:
  1262  002318                     
  1263                           ;MCAL/I2C/mcal_i2c.c: 76:             (SSPSTATbits.CKE = 1);
  1264  002318  8CC7               	bsf	199,6,c	;volatile
  1265                           
  1266                           ;MCAL/I2C/mcal_i2c.c: 77:         }
  1267  00231A  EF9D  F011         	goto	l8224
  1268  00231E                     l8220:
  1269  00231E  EE20 F006          	lfsr	2,6
  1270  002322  5048               	movf	MSSP_I2C_Init@i2c_obj^0,w,c
  1271  002324  26D9               	addwf	fsr2l,f,c
  1272  002326  5049               	movf	(MSSP_I2C_Init@i2c_obj+1)^0,w,c
  1273  002328  22DA               	addwfc	fsr2h,f,c
  1274  00232A  B4DF               	btfsc	indf2,2,c
  1275  00232C  EF9A  F011         	goto	u8451
  1276  002330  EF9C  F011         	goto	u8450
  1277  002334                     u8451:
  1278  002334  EF9D  F011         	goto	l8224
  1279  002338                     u8450:
  1280  002338                     
  1281                           ;MCAL/I2C/mcal_i2c.c: 79:             (SSPSTATbits.CKE = 0);
  1282  002338  9CC7               	bcf	199,6,c	;volatile
  1283  00233A                     l8224:
  1284                           
  1285                           ;MCAL/I2C/mcal_i2c.c: 85:         I2C_Interrupt_configuration(i2c_obj);
  1286  00233A  C048  F003         	movff	MSSP_I2C_Init@i2c_obj,I2C_Interrupt_configuration@i2c_obj
  1287  00233E  C049  F004         	movff	MSSP_I2C_Init@i2c_obj+1,I2C_Interrupt_configuration@i2c_obj+1
  1288  002342  EC18  F014         	call	_I2C_Interrupt_configuration	;wreg free
  1289  002346                     
  1290                           ;MCAL/I2C/mcal_i2c.c: 89:         (SSPCON1bits.SSPEN = 1);
  1291  002346  8AC6               	bsf	198,5,c	;volatile
  1292  002348                     l757:
  1293  002348  0012               	return		;funcret
  1294  00234A                     __end_of_MSSP_I2C_Init:
  1295                           	callstack 0
  1296                           
  1297 ;; *************** function _I2C_Slave_Mode_Clock_Configurations *****************
  1298 ;; Defined at:
  1299 ;;		line 325 in file "MCAL/I2C/mcal_i2c.c"
  1300 ;; Parameters:    Size  Location     Type
  1301 ;;  i2c_obj         2    2[COMRAM] PTR const struct .
  1302 ;;		 -> i2c_obj(13), 
  1303 ;; Auto vars:     Size  Location     Type
  1304 ;;  ERRORSTATUS     1    0        unsigned char 
  1305 ;; Return value:  Size  Location     Type
  1306 ;;                  1    wreg      void 
  1307 ;; Registers used:
  1308 ;;		wreg, fsr2l, fsr2h, status,2, status,0
  1309 ;; Tracked objects:
  1310 ;;		On entry : 0/0
  1311 ;;		On exit  : 0/0
  1312 ;;		Unchanged: 0/0
  1313 ;; Data sizes:     COMRAM   BANK0   BANK1   BANK2   BANK3   BANK4   BANK5   BANK6   BANK7   BANK8   BANK9  BANK10  BANK1
      +1  BANK12  BANK13  BANK14  BANK15
  1314 ;;      Params:         2       0       0       0       0       0       0       0       0       0       0       0       
      +0       0       0       0       0
  1315 ;;      Locals:         1       0       0       0       0       0       0       0       0       0       0       0       
      +0       0       0       0       0
  1316 ;;      Temps:          1       0       0       0       0       0       0       0       0       0       0       0       
      +0       0       0       0       0
  1317 ;;      Totals:         4       0       0       0       0       0       0       0       0       0       0       0       
      +0       0       0       0       0
  1318 ;;Total ram usage:        4 bytes
  1319 ;; Hardware stack levels used:    1
  1320 ;; Hardware stack levels required when called:    2
  1321 ;; This function calls:
  1322 ;;		Nothing
  1323 ;; This function is called by:
  1324 ;;		_MSSP_I2C_Init
  1325 ;; This function uses a non-reentrant model
  1326 ;;
  1327                           
  1328                           	psect	text4
  1329  002932                     __ptext4:
  1330                           	callstack 0
  1331  002932                     _I2C_Slave_Mode_Clock_Configurations:
  1332                           	callstack 25
  1333  002932                     
  1334                           ;MCAL/I2C/mcal_i2c.c: 328:     if (((void*)0)==i2c_obj)
  1335  002932  5003               	movf	I2C_Slave_Mode_Clock_Configurations@i2c_obj^0,w,c
  1336  002934  1004               	iorwf	(I2C_Slave_Mode_Clock_Configurations@i2c_obj+1)^0,w,c
  1337  002936  A4D8               	btfss	status,2,c
  1338  002938  EFA0  F014         	goto	u8361
  1339  00293C  EFA2  F014         	goto	u8360
  1340  002940                     u8361:
  1341  002940  EFA4  F014         	goto	l8164
  1342  002944                     u8360:
  1343  002944                     
  1344                           ;MCAL/I2C/mcal_i2c.c: 331:     }
  1345  002944  EFB1  F014         	goto	l854
  1346  002948                     l8164:
  1347                           
  1348                           ;MCAL/I2C/mcal_i2c.c: 333:     {;MCAL/I2C/mcal_i2c.c: 335:         SSPCON1bits.SSPM=i2c_
      +                          obj->i2c_cfg.i2c_mode_cfg;
  1349  002948  EE20 F004          	lfsr	2,4
  1350  00294C  5003               	movf	I2C_Slave_Mode_Clock_Configurations@i2c_obj^0,w,c
  1351  00294E  26D9               	addwf	fsr2l,f,c
  1352  002950  5004               	movf	(I2C_Slave_Mode_Clock_Configurations@i2c_obj+1)^0,w,c
  1353  002952  22DA               	addwfc	fsr2h,f,c
  1354  002954  50DF               	movf	indf2,w,c
  1355  002956  6E05               	movwf	??_I2C_Slave_Mode_Clock_Configurations^0,c
  1356  002958  50C6               	movf	198,w,c	;volatile
  1357  00295A  1805               	xorwf	??_I2C_Slave_Mode_Clock_Configurations^0,w,c
  1358  00295C  0BF0               	andlw	-16
  1359  00295E  1805               	xorwf	??_I2C_Slave_Mode_Clock_Configurations^0,w,c
  1360  002960  6EC6               	movwf	198,c	;volatile
  1361  002962                     l854:
  1362  002962  0012               	return		;funcret
  1363  002964                     __end_of_I2C_Slave_Mode_Clock_Configurations:
  1364                           	callstack 0
  1365                           
  1366 ;; *************** function _I2C_Pin_Configurations *****************
  1367 ;; Defined at:
  1368 ;;		line 339 in file "MCAL/I2C/mcal_i2c.c"
  1369 ;; Parameters:    Size  Location     Type
  1370 ;;		None
  1371 ;; Auto vars:     Size  Location     Type
  1372 ;;		None
  1373 ;; Return value:  Size  Location     Type
  1374 ;;                  1    wreg      void 
  1375 ;; Registers used:
  1376 ;;		None
  1377 ;; Tracked objects:
  1378 ;;		On entry : 0/0
  1379 ;;		On exit  : 0/0
  1380 ;;		Unchanged: 0/0
  1381 ;; Data sizes:     COMRAM   BANK0   BANK1   BANK2   BANK3   BANK4   BANK5   BANK6   BANK7   BANK8   BANK9  BANK10  BANK1
      +1  BANK12  BANK13  BANK14  BANK15
  1382 ;;      Params:         0       0       0       0       0       0       0       0       0       0       0       0       
      +0       0       0       0       0
  1383 ;;      Locals:         0       0       0       0       0       0       0       0       0       0       0       0       
      +0       0       0       0       0
  1384 ;;      Temps:          0       0       0       0       0       0       0       0       0       0       0       0       
      +0       0       0       0       0
  1385 ;;      Totals:         0       0       0       0       0       0       0       0       0       0       0       0       
      +0       0       0       0       0
  1386 ;;Total ram usage:        0 bytes
  1387 ;; Hardware stack levels used:    1
  1388 ;; Hardware stack levels required when called:    2
  1389 ;; This function calls:
  1390 ;;		Nothing
  1391 ;; This function is called by:
  1392 ;;		_MSSP_I2C_Init
  1393 ;; This function uses a non-reentrant model
  1394 ;;
  1395                           
  1396                           	psect	text5
  1397  002A36                     __ptext5:
  1398                           	callstack 0
  1399  002A36                     _I2C_Pin_Configurations:
  1400                           	callstack 25
  1401  002A36                     
  1402                           ;MCAL/I2C/mcal_i2c.c: 341:     TRISCbits.RC3=1;
  1403  002A36  8694               	bsf	148,3,c	;volatile
  1404                           
  1405                           ;MCAL/I2C/mcal_i2c.c: 342:     TRISCbits.RC4=1;
  1406  002A38  8894               	bsf	148,4,c	;volatile
  1407  002A3A  0012               	return		;funcret
  1408  002A3C                     __end_of_I2C_Pin_Configurations:
  1409                           	callstack 0
  1410                           
  1411 ;; *************** function _I2C_Master_Mode_Clock_Configurations *****************
  1412 ;; Defined at:
  1413 ;;		line 310 in file "MCAL/I2C/mcal_i2c.c"
  1414 ;; Parameters:    Size  Location     Type
  1415 ;;  i2c_obj         2   67[COMRAM] PTR const struct .
  1416 ;;		 -> i2c_obj(13), 
  1417 ;; Auto vars:     Size  Location     Type
  1418 ;;  ERRORSTATUS     1    0        unsigned char 
  1419 ;; Return value:  Size  Location     Type
  1420 ;;                  1    wreg      void 
  1421 ;; Registers used:
  1422 ;;		wreg, fsr2l, fsr2h, status,2, status,0, cstack
  1423 ;; Tracked objects:
  1424 ;;		On entry : 0/0
  1425 ;;		On exit  : 0/0
  1426 ;;		Unchanged: 0/0
  1427 ;; Data sizes:     COMRAM   BANK0   BANK1   BANK2   BANK3   BANK4   BANK5   BANK6   BANK7   BANK8   BANK9  BANK10  BANK1
      +1  BANK12  BANK13  BANK14  BANK15
  1428 ;;      Params:         2       0       0       0       0       0       0       0       0       0       0       0       
      +0       0       0       0       0
  1429 ;;      Locals:         1       0       0       0       0       0       0       0       0       0       0       0       
      +0       0       0       0       0
  1430 ;;      Temps:          1       0       0       0       0       0       0       0       0       0       0       0       
      +0       0       0       0       0
  1431 ;;      Totals:         4       0       0       0       0       0       0       0       0       0       0       0       
      +0       0       0       0       0
  1432 ;;Total ram usage:        4 bytes
  1433 ;; Hardware stack levels used:    1
  1434 ;; Hardware stack levels required when called:    3
  1435 ;; This function calls:
  1436 ;;		___fladd
  1437 ;;		___fldiv
  1438 ;;		___fltol
  1439 ;;		___xxtofl
  1440 ;; This function is called by:
  1441 ;;		_MSSP_I2C_Init
  1442 ;; This function uses a non-reentrant model
  1443 ;;
  1444                           
  1445                           	psect	text6
  1446  0025E2                     __ptext6:
  1447                           	callstack 0
  1448  0025E2                     _I2C_Master_Mode_Clock_Configurations:
  1449                           	callstack 24
  1450  0025E2                     
  1451                           ;MCAL/I2C/mcal_i2c.c: 313:     if (((void*)0)==i2c_obj)
  1452  0025E2  5044               	movf	I2C_Master_Mode_Clock_Configurations@i2c_obj^0,w,c
  1453  0025E4  1045               	iorwf	(I2C_Master_Mode_Clock_Configurations@i2c_obj+1)^0,w,c
  1454  0025E6  A4D8               	btfss	status,2,c
  1455  0025E8  EFF8  F012         	goto	u8351
  1456  0025EC  EFFA  F012         	goto	u8350
  1457  0025F0                     u8351:
  1458  0025F0  EFFC  F012         	goto	l8154
  1459  0025F4                     u8350:
  1460  0025F4                     
  1461                           ;MCAL/I2C/mcal_i2c.c: 316:     }
  1462  0025F4  EF48  F013         	goto	l849
  1463  0025F8                     l8154:
  1464                           
  1465                           ;MCAL/I2C/mcal_i2c.c: 318:     {;MCAL/I2C/mcal_i2c.c: 320:         SSPCON1bits.SSPM=i2c_
      +                          obj->i2c_cfg.i2c_mode_cfg;
  1466  0025F8  EE20 F004          	lfsr	2,4
  1467  0025FC  5044               	movf	I2C_Master_Mode_Clock_Configurations@i2c_obj^0,w,c
  1468  0025FE  26D9               	addwf	fsr2l,f,c
  1469  002600  5045               	movf	(I2C_Master_Mode_Clock_Configurations@i2c_obj+1)^0,w,c
  1470  002602  22DA               	addwfc	fsr2h,f,c
  1471  002604  50DF               	movf	indf2,w,c
  1472  002606  6E46               	movwf	??_I2C_Master_Mode_Clock_Configurations^0,c
  1473  002608  50C6               	movf	198,w,c	;volatile
  1474  00260A  1846               	xorwf	??_I2C_Master_Mode_Clock_Configurations^0,w,c
  1475  00260C  0BF0               	andlw	-16
  1476  00260E  1846               	xorwf	??_I2C_Master_Mode_Clock_Configurations^0,w,c
  1477  002610  6EC6               	movwf	198,c	;volatile
  1478  002612                     
  1479                           ;MCAL/I2C/mcal_i2c.c: 321:         SSPADD=(uint8)(((8000000/4.0)/i2c_obj->i2c_clock)-1);
  1480  002612  0E00               	movlw	0
  1481  002614  6E2E               	movwf	___fladd@a^0,c
  1482  002616  0E00               	movlw	0
  1483  002618  6E2F               	movwf	(___fladd@a+1)^0,c
  1484  00261A  0E80               	movlw	128
  1485  00261C  6E30               	movwf	(___fladd@a+2)^0,c
  1486  00261E  0EBF               	movlw	191
  1487  002620  6E31               	movwf	(___fladd@a+3)^0,c
  1488  002622  C044  FFD9         	movff	I2C_Master_Mode_Clock_Configurations@i2c_obj,fsr2l
  1489  002626  C045  FFDA         	movff	I2C_Master_Mode_Clock_Configurations@i2c_obj+1,fsr2h
  1490  00262A  CFDE F003          	movff	postinc2,___xxtofl@val
  1491  00262E  CFDE F004          	movff	postinc2,___xxtofl@val+1
  1492  002632  CFDE F005          	movff	postinc2,___xxtofl@val+2
  1493  002636  CFDE F006          	movff	postinc2,___xxtofl@val+3
  1494  00263A  0E00               	movlw	0
  1495  00263C  EC28  F010         	call	___xxtofl
  1496  002640  C003  F015         	movff	?___xxtofl,___fldiv@a
  1497  002644  C004  F016         	movff	?___xxtofl+1,___fldiv@a+1
  1498  002648  C005  F017         	movff	?___xxtofl+2,___fldiv@a+2
  1499  00264C  C006  F018         	movff	?___xxtofl+3,___fldiv@a+3
  1500  002650  0E00               	movlw	0
  1501  002652  6E11               	movwf	___fldiv@b^0,c
  1502  002654  0E24               	movlw	36
  1503  002656  6E12               	movwf	(___fldiv@b+1)^0,c
  1504  002658  0EF4               	movlw	244
  1505  00265A  6E13               	movwf	(___fldiv@b+2)^0,c
  1506  00265C  0E49               	movlw	73
  1507  00265E  6E14               	movwf	(___fldiv@b+3)^0,c
  1508  002660  EC5B  F00E         	call	___fldiv	;wreg free
  1509  002664  C011  F02A         	movff	?___fldiv,___fladd@b
  1510  002668  C012  F02B         	movff	?___fldiv+1,___fladd@b+1
  1511  00266C  C013  F02C         	movff	?___fldiv+2,___fladd@b+2
  1512  002670  C014  F02D         	movff	?___fldiv+3,___fladd@b+3
  1513  002674  EC03  F008         	call	___fladd	;wreg free
  1514  002678  C02A  F03A         	movff	?___fladd,___fltol@f1
  1515  00267C  C02B  F03B         	movff	?___fladd+1,___fltol@f1+1
  1516  002680  C02C  F03C         	movff	?___fladd+2,___fltol@f1+2
  1517  002684  C02D  F03D         	movff	?___fladd+3,___fltol@f1+3
  1518  002688  ECA5  F011         	call	___fltol	;wreg free
  1519  00268C  503A               	movf	?___fltol^0,w,c
  1520  00268E  6EC8               	movwf	200,c	;volatile
  1521  002690                     l849:
  1522  002690  0012               	return		;funcret
  1523  002692                     __end_of_I2C_Master_Mode_Clock_Configurations:
  1524                           	callstack 0
  1525                           
  1526 ;; *************** function ___fldiv *****************
  1527 ;; Defined at:
  1528 ;;		line 11 in file "C:\Program Files\Microchip\xc8\v2.30\pic\sources\c99\common\sprcdiv.c"
  1529 ;; Parameters:    Size  Location     Type
  1530 ;;  b               4   16[COMRAM] void 
  1531 ;;  a               4   20[COMRAM] void 
  1532 ;; Auto vars:     Size  Location     Type
  1533 ;;  grs             4   35[COMRAM] unsigned long 
  1534 ;;  rem             4   28[COMRAM] unsigned long 
  1535 ;;  new_exp         2   33[COMRAM] short 
  1536 ;;  aexp            1   40[COMRAM] unsigned char 
  1537 ;;  bexp            1   39[COMRAM] unsigned char 
  1538 ;;  sign            1   32[COMRAM] unsigned char 
  1539 ;; Return value:  Size  Location     Type
  1540 ;;                  4   16[COMRAM] unsigned char 
  1541 ;; Registers used:
  1542 ;;		wreg, status,2, status,0
  1543 ;; Tracked objects:
  1544 ;;		On entry : 0/0
  1545 ;;		On exit  : 0/0
  1546 ;;		Unchanged: 0/0
  1547 ;; Data sizes:     COMRAM   BANK0   BANK1   BANK2   BANK3   BANK4   BANK5   BANK6   BANK7   BANK8   BANK9  BANK10  BANK1
      +1  BANK12  BANK13  BANK14  BANK15
  1548 ;;      Params:         8       0       0       0       0       0       0       0       0       0       0       0       
      +0       0       0       0       0
  1549 ;;      Locals:        13       0       0       0       0       0       0       0       0       0       0       0       
      +0       0       0       0       0
  1550 ;;      Temps:          4       0       0       0       0       0       0       0       0       0       0       0       
      +0       0       0       0       0
  1551 ;;      Totals:        25       0       0       0       0       0       0       0       0       0       0       0       
      +0       0       0       0       0
  1552 ;;Total ram usage:       25 bytes
  1553 ;; Hardware stack levels used:    1
  1554 ;; Hardware stack levels required when called:    2
  1555 ;; This function calls:
  1556 ;;		Nothing
  1557 ;; This function is called by:
  1558 ;;		_I2C_Master_Mode_Clock_Configurations
  1559 ;;		_EUSART_Baud_Rate_Calculation
  1560 ;; This function uses a non-reentrant model
  1561 ;;
  1562                           
  1563                           	psect	text7
  1564  001CB6                     __ptext7:
  1565                           	callstack 0
  1566  001CB6                     ___fldiv:
  1567                           	callstack 24
  1568  001CB6  5014               	movf	(___fldiv@b+3)^0,w,c
  1569  001CB8  0B80               	andlw	128
  1570  001CBA  6E21               	movwf	___fldiv@sign^0,c
  1571  001CBC  5014               	movf	(___fldiv@b+3)^0,w,c
  1572  001CBE  2414               	addwf	(___fldiv@b+3)^0,w,c
  1573  001CC0  6E28               	movwf	___fldiv@bexp^0,c
  1574  001CC2  AE13               	btfss	(___fldiv@b+2)^0,7,c
  1575  001CC4  EF66  F00E         	goto	u7851
  1576  001CC8  EF68  F00E         	goto	u7850
  1577  001CCC                     u7851:
  1578  001CCC  EF69  F00E         	goto	l7888
  1579  001CD0                     u7850:
  1580  001CD0  8028               	bsf	___fldiv@bexp^0,0,c
  1581  001CD2                     l7888:
  1582  001CD2  5028               	movf	___fldiv@bexp^0,w,c
  1583  001CD4  B4D8               	btfsc	status,2,c
  1584  001CD6  EF6F  F00E         	goto	u7861
  1585  001CDA  EF71  F00E         	goto	u7860
  1586  001CDE                     u7861:
  1587  001CDE  EF86  F00E         	goto	l7898
  1588  001CE2                     u7860:
  1589  001CE2  2828               	incf	___fldiv@bexp^0,w,c
  1590  001CE4  A4D8               	btfss	status,2,c
  1591  001CE6  EF77  F00E         	goto	u7871
  1592  001CEA  EF79  F00E         	goto	u7870
  1593  001CEE                     u7871:
  1594  001CEE  EF81  F00E         	goto	l7894
  1595  001CF2                     u7870:
  1596  001CF2  0E00               	movlw	0
  1597  001CF4  6E11               	movwf	___fldiv@b^0,c
  1598  001CF6  0E00               	movlw	0
  1599  001CF8  6E12               	movwf	(___fldiv@b+1)^0,c
  1600  001CFA  0E00               	movlw	0
  1601  001CFC  6E13               	movwf	(___fldiv@b+2)^0,c
  1602  001CFE  0E00               	movlw	0
  1603  001D00  6E14               	movwf	(___fldiv@b+3)^0,c
  1604  001D02                     l7894:
  1605  001D02  8E13               	bsf	(___fldiv@b+2)^0,7,c
  1606  001D04  0E00               	movlw	0
  1607  001D06  6E14               	movwf	(___fldiv@b+3)^0,c
  1608  001D08  EF8E  F00E         	goto	l7900
  1609  001D0C                     l7898:
  1610  001D0C  0E00               	movlw	0
  1611  001D0E  6E11               	movwf	___fldiv@b^0,c
  1612  001D10  0E00               	movlw	0
  1613  001D12  6E12               	movwf	(___fldiv@b+1)^0,c
  1614  001D14  0E00               	movlw	0
  1615  001D16  6E13               	movwf	(___fldiv@b+2)^0,c
  1616  001D18  0E00               	movlw	0
  1617  001D1A  6E14               	movwf	(___fldiv@b+3)^0,c
  1618  001D1C                     l7900:
  1619  001D1C  5018               	movf	(___fldiv@a+3)^0,w,c
  1620  001D1E  0B80               	andlw	128
  1621  001D20  1A21               	xorwf	___fldiv@sign^0,f,c
  1622  001D22  5018               	movf	(___fldiv@a+3)^0,w,c
  1623  001D24  2418               	addwf	(___fldiv@a+3)^0,w,c
  1624  001D26  6E29               	movwf	___fldiv@aexp^0,c
  1625  001D28  AE17               	btfss	(___fldiv@a+2)^0,7,c
  1626  001D2A  EF99  F00E         	goto	u7881
  1627  001D2E  EF9B  F00E         	goto	u7880
  1628  001D32                     u7881:
  1629  001D32  EF9C  F00E         	goto	l7908
  1630  001D36                     u7880:
  1631  001D36  8029               	bsf	___fldiv@aexp^0,0,c
  1632  001D38                     l7908:
  1633  001D38  5029               	movf	___fldiv@aexp^0,w,c
  1634  001D3A  B4D8               	btfsc	status,2,c
  1635  001D3C  EFA2  F00E         	goto	u7891
  1636  001D40  EFA4  F00E         	goto	u7890
  1637  001D44                     u7891:
  1638  001D44  EFB9  F00E         	goto	l7918
  1639  001D48                     u7890:
  1640  001D48  2829               	incf	___fldiv@aexp^0,w,c
  1641  001D4A  A4D8               	btfss	status,2,c
  1642  001D4C  EFAA  F00E         	goto	u7901
  1643  001D50  EFAC  F00E         	goto	u7900
  1644  001D54                     u7901:
  1645  001D54  EFB4  F00E         	goto	l7914
  1646  001D58                     u7900:
  1647  001D58  0E00               	movlw	0
  1648  001D5A  6E15               	movwf	___fldiv@a^0,c
  1649  001D5C  0E00               	movlw	0
  1650  001D5E  6E16               	movwf	(___fldiv@a+1)^0,c
  1651  001D60  0E00               	movlw	0
  1652  001D62  6E17               	movwf	(___fldiv@a+2)^0,c
  1653  001D64  0E00               	movlw	0
  1654  001D66  6E18               	movwf	(___fldiv@a+3)^0,c
  1655  001D68                     l7914:
  1656  001D68  8E17               	bsf	(___fldiv@a+2)^0,7,c
  1657  001D6A  0E00               	movlw	0
  1658  001D6C  6E18               	movwf	(___fldiv@a+3)^0,c
  1659  001D6E  EFC1  F00E         	goto	l7920
  1660  001D72                     l7918:
  1661  001D72  0E00               	movlw	0
  1662  001D74  6E15               	movwf	___fldiv@a^0,c
  1663  001D76  0E00               	movlw	0
  1664  001D78  6E16               	movwf	(___fldiv@a+1)^0,c
  1665  001D7A  0E00               	movlw	0
  1666  001D7C  6E17               	movwf	(___fldiv@a+2)^0,c
  1667  001D7E  0E00               	movlw	0
  1668  001D80  6E18               	movwf	(___fldiv@a+3)^0,c
  1669  001D82                     l7920:
  1670  001D82  5015               	movf	___fldiv@a^0,w,c
  1671  001D84  1016               	iorwf	(___fldiv@a+1)^0,w,c
  1672  001D86  1017               	iorwf	(___fldiv@a+2)^0,w,c
  1673  001D88  1018               	iorwf	(___fldiv@a+3)^0,w,c
  1674  001D8A  A4D8               	btfss	status,2,c
  1675  001D8C  EFCA  F00E         	goto	u7911
  1676  001D90  EFCC  F00E         	goto	u7910
  1677  001D94                     u7911:
  1678  001D94  EFE4  F00E         	goto	l7932
  1679  001D98                     u7910:
  1680  001D98  0E00               	movlw	0
  1681  001D9A  6E11               	movwf	___fldiv@b^0,c
  1682  001D9C  0E00               	movlw	0
  1683  001D9E  6E12               	movwf	(___fldiv@b+1)^0,c
  1684  001DA0  0E00               	movlw	0
  1685  001DA2  6E13               	movwf	(___fldiv@b+2)^0,c
  1686  001DA4  0E00               	movlw	0
  1687  001DA6  6E14               	movwf	(___fldiv@b+3)^0,c
  1688  001DA8  0E80               	movlw	128
  1689  001DAA  1213               	iorwf	(___fldiv@b+2)^0,f,c
  1690  001DAC  0E7F               	movlw	127
  1691  001DAE  1214               	iorwf	(___fldiv@b+3)^0,f,c
  1692  001DB0                     l7926:
  1693  001DB0  5021               	movf	___fldiv@sign^0,w,c
  1694  001DB2  1214               	iorwf	(___fldiv@b+3)^0,f,c
  1695  001DB4  C011  F011         	movff	___fldiv@b,?___fldiv
  1696  001DB8  C012  F012         	movff	___fldiv@b+1,?___fldiv+1
  1697  001DBC  C013  F013         	movff	___fldiv@b+2,?___fldiv+2
  1698  001DC0  C014  F014         	movff	___fldiv@b+3,?___fldiv+3
  1699  001DC4  EF27  F010         	goto	l2232
  1700  001DC8                     l7932:
  1701  001DC8  5028               	movf	___fldiv@bexp^0,w,c
  1702  001DCA  A4D8               	btfss	status,2,c
  1703  001DCC  EFEA  F00E         	goto	u7921
  1704  001DD0  EFEC  F00E         	goto	u7920
  1705  001DD4                     u7921:
  1706  001DD4  EFF6  F00E         	goto	l7940
  1707  001DD8                     u7920:
  1708  001DD8  0E00               	movlw	0
  1709  001DDA  6E11               	movwf	?___fldiv^0,c
  1710  001DDC  0E00               	movlw	0
  1711  001DDE  6E12               	movwf	(?___fldiv+1)^0,c
  1712  001DE0  0E00               	movlw	0
  1713  001DE2  6E13               	movwf	(?___fldiv+2)^0,c
  1714  001DE4  0E00               	movlw	0
  1715  001DE6  6E14               	movwf	(?___fldiv+3)^0,c
  1716  001DE8  EF27  F010         	goto	l2232
  1717  001DEC                     l7940:
  1718  001DEC  5029               	movf	___fldiv@aexp^0,w,c
  1719  001DEE  C028  F019         	movff	___fldiv@bexp,??___fldiv
  1720  001DF2  6A1A               	clrf	(??___fldiv+1)^0,c
  1721  001DF4  5E19               	subwf	??___fldiv^0,f,c
  1722  001DF6  0E00               	movlw	0
  1723  001DF8  5A1A               	subwfb	(??___fldiv+1)^0,f,c
  1724  001DFA  0E7F               	movlw	127
  1725  001DFC  2419               	addwf	??___fldiv^0,w,c
  1726  001DFE  6E22               	movwf	___fldiv@new_exp^0,c
  1727  001E00  0E00               	movlw	0
  1728  001E02  201A               	addwfc	(??___fldiv+1)^0,w,c
  1729  001E04  6E23               	movwf	(___fldiv@new_exp+1)^0,c
  1730  001E06  C011  F01D         	movff	___fldiv@b,___fldiv@rem
  1731  001E0A  C012  F01E         	movff	___fldiv@b+1,___fldiv@rem+1
  1732  001E0E  C013  F01F         	movff	___fldiv@b+2,___fldiv@rem+2
  1733  001E12  C014  F020         	movff	___fldiv@b+3,___fldiv@rem+3
  1734  001E16  0E00               	movlw	0
  1735  001E18  6E11               	movwf	___fldiv@b^0,c
  1736  001E1A  0E00               	movlw	0
  1737  001E1C  6E12               	movwf	(___fldiv@b+1)^0,c
  1738  001E1E  0E00               	movlw	0
  1739  001E20  6E13               	movwf	(___fldiv@b+2)^0,c
  1740  001E22  0E00               	movlw	0
  1741  001E24  6E14               	movwf	(___fldiv@b+3)^0,c
  1742  001E26  0E00               	movlw	0
  1743  001E28  6E24               	movwf	___fldiv@grs^0,c
  1744  001E2A  0E00               	movlw	0
  1745  001E2C  6E25               	movwf	(___fldiv@grs+1)^0,c
  1746  001E2E  0E00               	movlw	0
  1747  001E30  6E26               	movwf	(___fldiv@grs+2)^0,c
  1748  001E32  0E00               	movlw	0
  1749  001E34  6E27               	movwf	(___fldiv@grs+3)^0,c
  1750  001E36  0E00               	movlw	0
  1751  001E38  6E29               	movwf	___fldiv@aexp^0,c
  1752  001E3A  EF57  F00F         	goto	l2234
  1753  001E3E                     l7950:
  1754  001E3E  5029               	movf	___fldiv@aexp^0,w,c
  1755  001E40  B4D8               	btfsc	status,2,c
  1756  001E42  EF25  F00F         	goto	u7931
  1757  001E46  EF27  F00F         	goto	u7930
  1758  001E4A                     u7931:
  1759  001E4A  EF3E  F00F         	goto	l7958
  1760  001E4E                     u7930:
  1761  001E4E  90D8               	bcf	status,0,c
  1762  001E50  361D               	rlcf	___fldiv@rem^0,f,c
  1763  001E52  361E               	rlcf	(___fldiv@rem+1)^0,f,c
  1764  001E54  361F               	rlcf	(___fldiv@rem+2)^0,f,c
  1765  001E56  3620               	rlcf	(___fldiv@rem+3)^0,f,c
  1766  001E58  90D8               	bcf	status,0,c
  1767  001E5A  3611               	rlcf	___fldiv@b^0,f,c
  1768  001E5C  3612               	rlcf	(___fldiv@b+1)^0,f,c
  1769  001E5E  3613               	rlcf	(___fldiv@b+2)^0,f,c
  1770  001E60  3614               	rlcf	(___fldiv@b+3)^0,f,c
  1771  001E62  AE27               	btfss	(___fldiv@grs+3)^0,7,c
  1772  001E64  EF36  F00F         	goto	u7941
  1773  001E68  EF38  F00F         	goto	u7940
  1774  001E6C                     u7941:
  1775  001E6C  EF39  F00F         	goto	l2237
  1776  001E70                     u7940:
  1777  001E70  8011               	bsf	___fldiv@b^0,0,c
  1778  001E72                     l2237:
  1779  001E72  90D8               	bcf	status,0,c
  1780  001E74  3624               	rlcf	___fldiv@grs^0,f,c
  1781  001E76  3625               	rlcf	(___fldiv@grs+1)^0,f,c
  1782  001E78  3626               	rlcf	(___fldiv@grs+2)^0,f,c
  1783  001E7A  3627               	rlcf	(___fldiv@grs+3)^0,f,c
  1784  001E7C                     l7958:
  1785  001E7C  5015               	movf	___fldiv@a^0,w,c
  1786  001E7E  5C1D               	subwf	___fldiv@rem^0,w,c
  1787  001E80  5016               	movf	(___fldiv@a+1)^0,w,c
  1788  001E82  581E               	subwfb	(___fldiv@rem+1)^0,w,c
  1789  001E84  5017               	movf	(___fldiv@a+2)^0,w,c
  1790  001E86  581F               	subwfb	(___fldiv@rem+2)^0,w,c
  1791  001E88  5018               	movf	(___fldiv@a+3)^0,w,c
  1792  001E8A  5820               	subwfb	(___fldiv@rem+3)^0,w,c
  1793  001E8C  A0D8               	btfss	status,0,c
  1794  001E8E  EF4B  F00F         	goto	u7951
  1795  001E92  EF4D  F00F         	goto	u7950
  1796  001E96                     u7951:
  1797  001E96  EF56  F00F         	goto	l7964
  1798  001E9A                     u7950:
  1799  001E9A  8C27               	bsf	(___fldiv@grs+3)^0,6,c
  1800  001E9C  5015               	movf	___fldiv@a^0,w,c
  1801  001E9E  5E1D               	subwf	___fldiv@rem^0,f,c
  1802  001EA0  5016               	movf	(___fldiv@a+1)^0,w,c
  1803  001EA2  5A1E               	subwfb	(___fldiv@rem+1)^0,f,c
  1804  001EA4  5017               	movf	(___fldiv@a+2)^0,w,c
  1805  001EA6  5A1F               	subwfb	(___fldiv@rem+2)^0,f,c
  1806  001EA8  5018               	movf	(___fldiv@a+3)^0,w,c
  1807  001EAA  5A20               	subwfb	(___fldiv@rem+3)^0,f,c
  1808  001EAC                     l7964:
  1809  001EAC  2A29               	incf	___fldiv@aexp^0,f,c
  1810  001EAE                     l2234:
  1811  001EAE  0E19               	movlw	25
  1812  001EB0  6429               	cpfsgt	___fldiv@aexp^0,c
  1813  001EB2  EF5D  F00F         	goto	u7961
  1814  001EB6  EF5F  F00F         	goto	u7960
  1815  001EBA                     u7961:
  1816  001EBA  EF1F  F00F         	goto	l7950
  1817  001EBE                     u7960:
  1818  001EBE  501D               	movf	___fldiv@rem^0,w,c
  1819  001EC0  101E               	iorwf	(___fldiv@rem+1)^0,w,c
  1820  001EC2  101F               	iorwf	(___fldiv@rem+2)^0,w,c
  1821  001EC4  1020               	iorwf	(___fldiv@rem+3)^0,w,c
  1822  001EC6  B4D8               	btfsc	status,2,c
  1823  001EC8  EF68  F00F         	goto	u7971
  1824  001ECC  EF6A  F00F         	goto	u7970
  1825  001ED0                     u7971:
  1826  001ED0  EF82  F00F         	goto	l7976
  1827  001ED4                     u7970:
  1828  001ED4  8024               	bsf	___fldiv@grs^0,0,c
  1829  001ED6  EF82  F00F         	goto	l7976
  1830  001EDA                     l7970:
  1831  001EDA  90D8               	bcf	status,0,c
  1832  001EDC  3611               	rlcf	___fldiv@b^0,f,c
  1833  001EDE  3612               	rlcf	(___fldiv@b+1)^0,f,c
  1834  001EE0  3613               	rlcf	(___fldiv@b+2)^0,f,c
  1835  001EE2  3614               	rlcf	(___fldiv@b+3)^0,f,c
  1836  001EE4  AE27               	btfss	(___fldiv@grs+3)^0,7,c
  1837  001EE6  EF77  F00F         	goto	u7981
  1838  001EEA  EF79  F00F         	goto	u7980
  1839  001EEE                     u7981:
  1840  001EEE  EF7A  F00F         	goto	l2243
  1841  001EF2                     u7980:
  1842  001EF2  8011               	bsf	___fldiv@b^0,0,c
  1843  001EF4                     l2243:
  1844  001EF4  90D8               	bcf	status,0,c
  1845  001EF6  3624               	rlcf	___fldiv@grs^0,f,c
  1846  001EF8  3625               	rlcf	(___fldiv@grs+1)^0,f,c
  1847  001EFA  3626               	rlcf	(___fldiv@grs+2)^0,f,c
  1848  001EFC  3627               	rlcf	(___fldiv@grs+3)^0,f,c
  1849  001EFE  0622               	decf	___fldiv@new_exp^0,f,c
  1850  001F00  A0D8               	btfss	status,0,c
  1851  001F02  0623               	decf	(___fldiv@new_exp+1)^0,f,c
  1852  001F04                     l7976:
  1853  001F04  AE13               	btfss	(___fldiv@b+2)^0,7,c
  1854  001F06  EF87  F00F         	goto	u7991
  1855  001F0A  EF89  F00F         	goto	u7990
  1856  001F0E                     u7991:
  1857  001F0E  EF6D  F00F         	goto	l7970
  1858  001F12                     u7990:
  1859  001F12  0E00               	movlw	0
  1860  001F14  6E29               	movwf	___fldiv@aexp^0,c
  1861  001F16  AE27               	btfss	(___fldiv@grs+3)^0,7,c
  1862  001F18  EF90  F00F         	goto	u8001
  1863  001F1C  EF92  F00F         	goto	u8000
  1864  001F20                     u8001:
  1865  001F20  EFB6  F00F         	goto	l2245
  1866  001F24                     u8000:
  1867  001F24  0EFF               	movlw	255
  1868  001F26  1424               	andwf	___fldiv@grs^0,w,c
  1869  001F28  6E19               	movwf	??___fldiv^0,c
  1870  001F2A  0EFF               	movlw	255
  1871  001F2C  1425               	andwf	(___fldiv@grs+1)^0,w,c
  1872  001F2E  6E1A               	movwf	(??___fldiv+1)^0,c
  1873  001F30  0EFF               	movlw	255
  1874  001F32  1426               	andwf	(___fldiv@grs+2)^0,w,c
  1875  001F34  6E1B               	movwf	(??___fldiv+2)^0,c
  1876  001F36  0E7F               	movlw	127
  1877  001F38  1427               	andwf	(___fldiv@grs+3)^0,w,c
  1878  001F3A  6E1C               	movwf	(??___fldiv+3)^0,c
  1879  001F3C  5019               	movf	??___fldiv^0,w,c
  1880  001F3E  101A               	iorwf	(??___fldiv+1)^0,w,c
  1881  001F40  101B               	iorwf	(??___fldiv+2)^0,w,c
  1882  001F42  101C               	iorwf	(??___fldiv+3)^0,w,c
  1883  001F44  B4D8               	btfsc	status,2,c
  1884  001F46  EFA7  F00F         	goto	u8011
  1885  001F4A  EFA9  F00F         	goto	u8010
  1886  001F4E                     u8011:
  1887  001F4E  EFAD  F00F         	goto	l2246
  1888  001F52                     u8010:
  1889  001F52                     l7984:
  1890  001F52  0E01               	movlw	1
  1891  001F54  6E29               	movwf	___fldiv@aexp^0,c
  1892  001F56  EFB6  F00F         	goto	l2245
  1893  001F5A                     l2246:
  1894  001F5A  A011               	btfss	___fldiv@b^0,0,c
  1895  001F5C  EFB2  F00F         	goto	u8021
  1896  001F60  EFB4  F00F         	goto	u8020
  1897  001F64                     u8021:
  1898  001F64  EFB6  F00F         	goto	l2245
  1899  001F68                     u8020:
  1900  001F68  EFA9  F00F         	goto	l7984
  1901  001F6C                     l2245:
  1902  001F6C  5029               	movf	___fldiv@aexp^0,w,c
  1903  001F6E  B4D8               	btfsc	status,2,c
  1904  001F70  EFBC  F00F         	goto	u8031
  1905  001F74  EFBE  F00F         	goto	u8030
  1906  001F78                     u8031:
  1907  001F78  EFE2  F00F         	goto	l7996
  1908  001F7C                     u8030:
  1909  001F7C  0E01               	movlw	1
  1910  001F7E  2611               	addwf	___fldiv@b^0,f,c
  1911  001F80  0E00               	movlw	0
  1912  001F82  2212               	addwfc	(___fldiv@b+1)^0,f,c
  1913  001F84  2213               	addwfc	(___fldiv@b+2)^0,f,c
  1914  001F86  2214               	addwfc	(___fldiv@b+3)^0,f,c
  1915  001F88  A014               	btfss	(___fldiv@b+3)^0,0,c
  1916  001F8A  EFC9  F00F         	goto	u8041
  1917  001F8E  EFCB  F00F         	goto	u8040
  1918  001F92                     u8041:
  1919  001F92  EFE2  F00F         	goto	l7996
  1920  001F96                     u8040:
  1921  001F96  C011  F019         	movff	___fldiv@b,??___fldiv
  1922  001F9A  C012  F01A         	movff	___fldiv@b+1,??___fldiv+1
  1923  001F9E  C013  F01B         	movff	___fldiv@b+2,??___fldiv+2
  1924  001FA2  C014  F01C         	movff	___fldiv@b+3,??___fldiv+3
  1925  001FA6  341C               	rlcf	(??___fldiv+3)^0,w,c
  1926  001FA8  321C               	rrcf	(??___fldiv+3)^0,f,c
  1927  001FAA  321B               	rrcf	(??___fldiv+2)^0,f,c
  1928  001FAC  321A               	rrcf	(??___fldiv+1)^0,f,c
  1929  001FAE  3219               	rrcf	??___fldiv^0,f,c
  1930  001FB0  C019  F011         	movff	??___fldiv,___fldiv@b
  1931  001FB4  C01A  F012         	movff	??___fldiv+1,___fldiv@b+1
  1932  001FB8  C01B  F013         	movff	??___fldiv+2,___fldiv@b+2
  1933  001FBC  C01C  F014         	movff	??___fldiv+3,___fldiv@b+3
  1934  001FC0  4A22               	infsnz	___fldiv@new_exp^0,f,c
  1935  001FC2  2A23               	incf	(___fldiv@new_exp+1)^0,f,c
  1936  001FC4                     l7996:
  1937  001FC4  BE23               	btfsc	(___fldiv@new_exp+1)^0,7,c
  1938  001FC6  EFED  F00F         	goto	u8051
  1939  001FCA  5023               	movf	(___fldiv@new_exp+1)^0,w,c
  1940  001FCC  E108               	bnz	u8050
  1941  001FCE  2822               	incf	___fldiv@new_exp^0,w,c
  1942  001FD0  A0D8               	btfss	status,0,c
  1943  001FD2  EFED  F00F         	goto	u8051
  1944  001FD6  EFEF  F00F         	goto	u8050
  1945  001FDA                     u8051:
  1946  001FDA  EFFA  F00F         	goto	l8000
  1947  001FDE                     u8050:
  1948  001FDE  0E00               	movlw	0
  1949  001FE0  6E23               	movwf	(___fldiv@new_exp+1)^0,c
  1950  001FE2  6822               	setf	___fldiv@new_exp^0,c
  1951  001FE4  0E00               	movlw	0
  1952  001FE6  6E11               	movwf	___fldiv@b^0,c
  1953  001FE8  0E00               	movlw	0
  1954  001FEA  6E12               	movwf	(___fldiv@b+1)^0,c
  1955  001FEC  0E00               	movlw	0
  1956  001FEE  6E13               	movwf	(___fldiv@b+2)^0,c
  1957  001FF0  0E00               	movlw	0
  1958  001FF2  6E14               	movwf	(___fldiv@b+3)^0,c
  1959  001FF4                     l8000:
  1960  001FF4  BE23               	btfsc	(___fldiv@new_exp+1)^0,7,c
  1961  001FF6  EF07  F010         	goto	u8060
  1962  001FFA  5023               	movf	(___fldiv@new_exp+1)^0,w,c
  1963  001FFC  E106               	bnz	u8061
  1964  001FFE  0422               	decf	___fldiv@new_exp^0,w,c
  1965  002000  B0D8               	btfsc	status,0,c
  1966  002002  EF05  F010         	goto	u8061
  1967  002006  EF07  F010         	goto	u8060
  1968  00200A                     u8061:
  1969  00200A  EF15  F010         	goto	l8004
  1970  00200E                     u8060:
  1971  00200E  0E00               	movlw	0
  1972  002010  6E23               	movwf	(___fldiv@new_exp+1)^0,c
  1973  002012  0E00               	movlw	0
  1974  002014  6E22               	movwf	___fldiv@new_exp^0,c
  1975  002016  0E00               	movlw	0
  1976  002018  6E11               	movwf	___fldiv@b^0,c
  1977  00201A  0E00               	movlw	0
  1978  00201C  6E12               	movwf	(___fldiv@b+1)^0,c
  1979  00201E  0E00               	movlw	0
  1980  002020  6E13               	movwf	(___fldiv@b+2)^0,c
  1981  002022  0E00               	movlw	0
  1982  002024  6E14               	movwf	(___fldiv@b+3)^0,c
  1983  002026  0E00               	movlw	0
  1984  002028  6E21               	movwf	___fldiv@sign^0,c
  1985  00202A                     l8004:
  1986  00202A  C022  F028         	movff	___fldiv@new_exp,___fldiv@bexp
  1987  00202E  A028               	btfss	___fldiv@bexp^0,0,c
  1988  002030  EF1C  F010         	goto	u8071
  1989  002034  EF1E  F010         	goto	u8070
  1990  002038                     u8071:
  1991  002038  EF21  F010         	goto	l8010
  1992  00203C                     u8070:
  1993  00203C  8E13               	bsf	(___fldiv@b+2)^0,7,c
  1994  00203E  EF22  F010         	goto	l8012
  1995  002042                     l8010:
  1996  002042  9E13               	bcf	(___fldiv@b+2)^0,7,c
  1997  002044                     l8012:
  1998  002044  90D8               	bcf	status,0,c
  1999  002046  3028               	rrcf	___fldiv@bexp^0,w,c
  2000  002048  6E14               	movwf	(___fldiv@b+3)^0,c
  2001  00204A  EFD8  F00E         	goto	l7926
  2002  00204E                     l2232:
  2003  00204E  0012               	return		;funcret
  2004  002050                     __end_of___fldiv:
  2005                           	callstack 0
  2006                           
  2007 ;; *************** function _I2C_Interrupt_configuration *****************
  2008 ;; Defined at:
  2009 ;;		line 346 in file "MCAL/I2C/mcal_i2c.c"
  2010 ;; Parameters:    Size  Location     Type
  2011 ;;  i2c_obj         2    2[COMRAM] PTR const struct .
  2012 ;;		 -> i2c_obj(13), 
  2013 ;; Auto vars:     Size  Location     Type
  2014 ;;		None
  2015 ;; Return value:  Size  Location     Type
  2016 ;;                  1    wreg      void 
  2017 ;; Registers used:
  2018 ;;		wreg, fsr2l, fsr2h, status,2, status,0
  2019 ;; Tracked objects:
  2020 ;;		On entry : 0/0
  2021 ;;		On exit  : 0/0
  2022 ;;		Unchanged: 0/0
  2023 ;; Data sizes:     COMRAM   BANK0   BANK1   BANK2   BANK3   BANK4   BANK5   BANK6   BANK7   BANK8   BANK9  BANK10  BANK1
      +1  BANK12  BANK13  BANK14  BANK15
  2024 ;;      Params:         2       0       0       0       0       0       0       0       0       0       0       0       
      +0       0       0       0       0
  2025 ;;      Locals:         0       0       0       0       0       0       0       0       0       0       0       0       
      +0       0       0       0       0
  2026 ;;      Temps:          0       0       0       0       0       0       0       0       0       0       0       0       
      +0       0       0       0       0
  2027 ;;      Totals:         2       0       0       0       0       0       0       0       0       0       0       0       
      +0       0       0       0       0
  2028 ;;Total ram usage:        2 bytes
  2029 ;; Hardware stack levels used:    1
  2030 ;; Hardware stack levels required when called:    2
  2031 ;; This function calls:
  2032 ;;		Nothing
  2033 ;; This function is called by:
  2034 ;;		_MSSP_I2C_Init
  2035 ;; This function uses a non-reentrant model
  2036 ;;
  2037                           
  2038                           	psect	text8
  2039  002830                     __ptext8:
  2040                           	callstack 0
  2041  002830                     _I2C_Interrupt_configuration:
  2042                           	callstack 25
  2043  002830                     
  2044                           ;MCAL/I2C/mcal_i2c.c: 346: static void I2C_Interrupt_configuration(const mssp_i2c_t *i2c
      +                          _obj);MCAL/I2C/mcal_i2c.c: 347: {;MCAL/I2C/mcal_i2c.c: 349:        (PIE1bits.SSPIE=0);
  2045  002830  969D               	bcf	157,3,c	;volatile
  2046                           
  2047                           ;MCAL/I2C/mcal_i2c.c: 366:         (INTCONbits.GIE=1);
  2048  002832  8EF2               	bsf	242,7,c	;volatile
  2049                           
  2050                           ;MCAL/I2C/mcal_i2c.c: 367:         ( INTCONbits.PEIE=1);
  2051  002834  8CF2               	bsf	242,6,c	;volatile
  2052                           
  2053                           ;MCAL/I2C/mcal_i2c.c: 369:         (PIR1bits.SSPIF=0);
  2054  002836  969E               	bcf	158,3,c	;volatile
  2055                           
  2056                           ;MCAL/I2C/mcal_i2c.c: 370:         (PIE1bits.SSPIE=1);
  2057  002838  869D               	bsf	157,3,c	;volatile
  2058  00283A                     
  2059                           ;MCAL/I2C/mcal_i2c.c: 372:         I2C_DefaultInterruptHandler=i2c_obj->I2C_DefaultInter
      +                          ruptHandler;
  2060  00283A  EE20 F009          	lfsr	2,9
  2061  00283E  5003               	movf	I2C_Interrupt_configuration@i2c_obj^0,w,c
  2062  002840  26D9               	addwf	fsr2l,f,c
  2063  002842  5004               	movf	(I2C_Interrupt_configuration@i2c_obj+1)^0,w,c
  2064  002844  22DA               	addwfc	fsr2h,f,c
  2065  002846  CFDE F064          	movff	postinc2,_I2C_DefaultInterruptHandler
  2066  00284A  CFDD F065          	movff	postdec2,_I2C_DefaultInterruptHandler+1
  2067                           
  2068                           ;MCAL/I2C/mcal_i2c.c: 373:         I2C_Report_Receive_Overflow =i2c_obj->I2C_Report_Rece
      +                          ive_Overflow;
  2069  00284E  EE20 F00B          	lfsr	2,11
  2070  002852  5003               	movf	I2C_Interrupt_configuration@i2c_obj^0,w,c
  2071  002854  26D9               	addwf	fsr2l,f,c
  2072  002856  5004               	movf	(I2C_Interrupt_configuration@i2c_obj+1)^0,w,c
  2073  002858  22DA               	addwfc	fsr2h,f,c
  2074  00285A  CFDE F0E7          	movff	postinc2,_I2C_Report_Receive_Overflow
  2075  00285E  CFDD F0E8          	movff	postdec2,_I2C_Report_Receive_Overflow+1
  2076  002862                     
  2077                           ;MCAL/I2C/mcal_i2c.c: 380:        (PIE2bits.BCLIE=0);
  2078  002862  96A0               	bcf	160,3,c	;volatile
  2079  002864                     
  2080                           ;MCAL/I2C/mcal_i2c.c: 398:         (INTCONbits.GIE=1);
  2081  002864  8EF2               	bsf	242,7,c	;volatile
  2082  002866                     
  2083                           ;MCAL/I2C/mcal_i2c.c: 399:         ( INTCONbits.PEIE=1);
  2084  002866  8CF2               	bsf	242,6,c	;volatile
  2085  002868                     
  2086                           ;MCAL/I2C/mcal_i2c.c: 401:         (PIR2bits.BCLIF=0);
  2087  002868  96A1               	bcf	161,3,c	;volatile
  2088  00286A                     
  2089                           ;MCAL/I2C/mcal_i2c.c: 402:         (PIE2bits.BCLIE=1);
  2090  00286A  86A0               	bsf	160,3,c	;volatile
  2091                           
  2092                           ;MCAL/I2C/mcal_i2c.c: 404:         I2C_Report_Write_Collision=i2c_obj->I2C_Report_Write_
      +                          Collision;
  2093  00286C  EE20 F007          	lfsr	2,7
  2094  002870  5003               	movf	I2C_Interrupt_configuration@i2c_obj^0,w,c
  2095  002872  26D9               	addwf	fsr2l,f,c
  2096  002874  5004               	movf	(I2C_Interrupt_configuration@i2c_obj+1)^0,w,c
  2097  002876  22DA               	addwfc	fsr2h,f,c
  2098  002878  CFDE F062          	movff	postinc2,_I2C_Report_Write_Collision
  2099  00287C  CFDD F063          	movff	postdec2,_I2C_Report_Write_Collision+1
  2100  002880  0012               	return		;funcret
  2101  002882                     __end_of_I2C_Interrupt_configuration:
  2102                           	callstack 0
  2103                           
  2104 ;; *************** function _Servo_SetAngle *****************
  2105 ;; Defined at:
  2106 ;;		line 30 in file "ECU/SERVO_MOTOR_I2C/ecu_servo_motor_i2c.c"
  2107 ;; Parameters:    Size  Location     Type
  2108 ;;  i2c_obj         2   67[COMRAM] PTR const struct .
  2109 ;;		 -> i2c_obj(13), 
  2110 ;;  servo_driver    2   69[COMRAM] PTR const struct .
  2111 ;;		 -> s1_obj(4), 
  2112 ;;  servo_no        1   71[COMRAM] const enum E3074
  2113 ;;  angle           1   72[COMRAM] const unsigned char 
  2114 ;; Auto vars:     Size  Location     Type
  2115 ;;  angle_in_reg    2   74[COMRAM] unsigned short 
  2116 ;;  reg_addrees     1   76[COMRAM] unsigned char 
  2117 ;;  ERRORSTATUS     1    0        unsigned char 
  2118 ;; Return value:  Size  Location     Type
  2119 ;;                  1    wreg      unsigned char 
  2120 ;; Registers used:
  2121 ;;		wreg, fsr2l, fsr2h, status,2, status,0, prodl, prodh, cstack
  2122 ;; Tracked objects:
  2123 ;;		On entry : 0/0
  2124 ;;		On exit  : 0/0
  2125 ;;		Unchanged: 0/0
  2126 ;; Data sizes:     COMRAM   BANK0   BANK1   BANK2   BANK3   BANK4   BANK5   BANK6   BANK7   BANK8   BANK9  BANK10  BANK1
      +1  BANK12  BANK13  BANK14  BANK15
  2127 ;;      Params:         6       0       0       0       0       0       0       0       0       0       0       0       
      +0       0       0       0       0
  2128 ;;      Locals:         4       0       0       0       0       0       0       0       0       0       0       0       
      +0       0       0       0       0
  2129 ;;      Temps:          0       0       0       0       0       0       0       0       0       0       0       0       
      +0       0       0       0       0
  2130 ;;      Totals:        10       0       0       0       0       0       0       0       0       0       0       0       
      +0       0       0       0       0
  2131 ;;Total ram usage:       10 bytes
  2132 ;; Hardware stack levels used:    1
  2133 ;; Hardware stack levels required when called:    4
  2134 ;; This function calls:
  2135 ;;		_PCA_Write_Reg
  2136 ;;		___fladd
  2137 ;;		___flmul
  2138 ;;		___fltol
  2139 ;;		___xxtofl
  2140 ;; This function is called by:
  2141 ;;		_main
  2142 ;; This function uses a non-reentrant model
  2143 ;;
  2144                           
  2145                           	psect	text9
  2146  002450                     __ptext9:
  2147                           	callstack 0
  2148  002450                     _Servo_SetAngle:
  2149                           	callstack 26
  2150  002450                     
  2151                           ;ECU/SERVO_MOTOR_I2C/ecu_servo_motor_i2c.c: 33:     if (((void*)0)==i2c_obj)
  2152  002450  5044               	movf	Servo_SetAngle@i2c_obj^0,w,c
  2153  002452  1045               	iorwf	(Servo_SetAngle@i2c_obj+1)^0,w,c
  2154  002454  A4D8               	btfss	status,2,c
  2155  002456  EF2F  F012         	goto	u8671
  2156  00245A  EF31  F012         	goto	u8670
  2157  00245E                     u8671:
  2158  00245E  EF33  F012         	goto	l8390
  2159  002462                     u8670:
  2160  002462                     
  2161                           ;ECU/SERVO_MOTOR_I2C/ecu_servo_motor_i2c.c: 36:     }
  2162  002462  EF93  F012         	goto	l342
  2163  002466                     l8390:
  2164                           
  2165                           ;ECU/SERVO_MOTOR_I2C/ecu_servo_motor_i2c.c: 38:     {;ECU/SERVO_MOTOR_I2C/ecu_servo_moto
      +                          r_i2c.c: 39:         uint8 reg_addrees=6+(servo_no*4)+2;
  2166  002466  5048               	movf	Servo_SetAngle@servo_no^0,w,c
  2167  002468  0D04               	mullw	4
  2168  00246A  50F3               	movf	243,w,c
  2169  00246C  0F08               	addlw	8
  2170  00246E  6E4D               	movwf	Servo_SetAngle@reg_addrees^0,c
  2171  002470                     
  2172                           ;ECU/SERVO_MOTOR_I2C/ecu_servo_motor_i2c.c: 40:         uint16 angle_in_reg=(uint16)(ang
      +                          le*1.14+205);
  2173  002470  0E00               	movlw	0
  2174  002472  6E2E               	movwf	___fladd@a^0,c
  2175  002474  0E00               	movlw	0
  2176  002476  6E2F               	movwf	(___fladd@a+1)^0,c
  2177  002478  0E4D               	movlw	77
  2178  00247A  6E30               	movwf	(___fladd@a+2)^0,c
  2179  00247C  0E43               	movlw	67
  2180  00247E  6E31               	movwf	(___fladd@a+3)^0,c
  2181  002480  0E85               	movlw	133
  2182  002482  6E15               	movwf	___flmul@a^0,c
  2183  002484  0EEB               	movlw	235
  2184  002486  6E16               	movwf	(___flmul@a+1)^0,c
  2185  002488  0E91               	movlw	145
  2186  00248A  6E17               	movwf	(___flmul@a+2)^0,c
  2187  00248C  0E3F               	movlw	63
  2188  00248E  6E18               	movwf	(___flmul@a+3)^0,c
  2189  002490  5049               	movf	Servo_SetAngle@angle^0,w,c
  2190  002492  6E03               	movwf	___xxtofl@val^0,c
  2191  002494  6A04               	clrf	(___xxtofl@val+1)^0,c
  2192  002496  6A05               	clrf	(___xxtofl@val+2)^0,c
  2193  002498  6A06               	clrf	(___xxtofl@val+3)^0,c
  2194  00249A  0E01               	movlw	1
  2195  00249C  EC28  F010         	call	___xxtofl
  2196  0024A0  C003  F011         	movff	?___xxtofl,___flmul@b
  2197  0024A4  C004  F012         	movff	?___xxtofl+1,___flmul@b+1
  2198  0024A8  C005  F013         	movff	?___xxtofl+2,___flmul@b+2
  2199  0024AC  C006  F014         	movff	?___xxtofl+3,___flmul@b+3
  2200  0024B0  EC63  F00A         	call	___flmul	;wreg free
  2201  0024B4  C011  F02A         	movff	?___flmul,___fladd@b
  2202  0024B8  C012  F02B         	movff	?___flmul+1,___fladd@b+1
  2203  0024BC  C013  F02C         	movff	?___flmul+2,___fladd@b+2
  2204  0024C0  C014  F02D         	movff	?___flmul+3,___fladd@b+3
  2205  0024C4  EC03  F008         	call	___fladd	;wreg free
  2206  0024C8  C02A  F03A         	movff	?___fladd,___fltol@f1
  2207  0024CC  C02B  F03B         	movff	?___fladd+1,___fltol@f1+1
  2208  0024D0  C02C  F03C         	movff	?___fladd+2,___fltol@f1+2
  2209  0024D4  C02D  F03D         	movff	?___fladd+3,___fltol@f1+3
  2210  0024D8  ECA5  F011         	call	___fltol	;wreg free
  2211  0024DC  C03A  F04B         	movff	?___fltol,Servo_SetAngle@angle_in_reg
  2212  0024E0  C03B  F04C         	movff	?___fltol+1,Servo_SetAngle@angle_in_reg+1
  2213  0024E4                     
  2214                           ;ECU/SERVO_MOTOR_I2C/ecu_servo_motor_i2c.c: 45:         PCA_Write_Reg(i2c_obj,servo_driv
      +                          er_obj->slave_address,reg_addrees,((uint8)angle_in_reg));
  2215  0024E4  C044  F009         	movff	Servo_SetAngle@i2c_obj,PCA_Write_Reg@i2c_obj
  2216  0024E8  C045  F00A         	movff	Servo_SetAngle@i2c_obj+1,PCA_Write_Reg@i2c_obj+1
  2217  0024EC  C046  FFD9         	movff	Servo_SetAngle@servo_driver_obj,fsr2l
  2218  0024F0  C047  FFDA         	movff	Servo_SetAngle@servo_driver_obj+1,fsr2h
  2219  0024F4  50DF               	movf	indf2,w,c
  2220  0024F6  6E0B               	movwf	PCA_Write_Reg@slave_address^0,c
  2221  0024F8  C04D  F00C         	movff	Servo_SetAngle@reg_addrees,PCA_Write_Reg@reg_address
  2222  0024FC  C04B  F00D         	movff	Servo_SetAngle@angle_in_reg,PCA_Write_Reg@data
  2223  002500  ECB4  F013         	call	_PCA_Write_Reg	;wreg free
  2224  002504                     
  2225                           ;ECU/SERVO_MOTOR_I2C/ecu_servo_motor_i2c.c: 46:         reg_addrees++;
  2226  002504  2A4D               	incf	Servo_SetAngle@reg_addrees^0,f,c
  2227  002506                     
  2228                           ;ECU/SERVO_MOTOR_I2C/ecu_servo_motor_i2c.c: 47:         PCA_Write_Reg(i2c_obj,servo_driv
      +                          er_obj->slave_address,reg_addrees,((uint8)(angle_in_reg>>8)));
  2229  002506  C044  F009         	movff	Servo_SetAngle@i2c_obj,PCA_Write_Reg@i2c_obj
  2230  00250A  C045  F00A         	movff	Servo_SetAngle@i2c_obj+1,PCA_Write_Reg@i2c_obj+1
  2231  00250E  C046  FFD9         	movff	Servo_SetAngle@servo_driver_obj,fsr2l
  2232  002512  C047  FFDA         	movff	Servo_SetAngle@servo_driver_obj+1,fsr2h
  2233  002516  50DF               	movf	indf2,w,c
  2234  002518  6E0B               	movwf	PCA_Write_Reg@slave_address^0,c
  2235  00251A  C04D  F00C         	movff	Servo_SetAngle@reg_addrees,PCA_Write_Reg@reg_address
  2236  00251E  504C               	movf	(Servo_SetAngle@angle_in_reg+1)^0,w,c
  2237  002520  6E0D               	movwf	PCA_Write_Reg@data^0,c
  2238  002522  ECB4  F013         	call	_PCA_Write_Reg	;wreg free
  2239  002526                     l342:
  2240  002526  0012               	return		;funcret
  2241  002528                     __end_of_Servo_SetAngle:
  2242                           	callstack 0
  2243                           
  2244 ;; *************** function ___xxtofl *****************
  2245 ;; Defined at:
  2246 ;;		line 10 in file "C:\Program Files\Microchip\xc8\v2.30\pic\sources\c99\common\xxtofl.c"
  2247 ;; Parameters:    Size  Location     Type
  2248 ;;  sign            1    wreg     unsigned char 
  2249 ;;  val             4    2[COMRAM] long 
  2250 ;; Auto vars:     Size  Location     Type
  2251 ;;  sign            1   10[COMRAM] unsigned char 
  2252 ;;  arg             4   12[COMRAM] unsigned long 
  2253 ;;  exp             1   11[COMRAM] unsigned char 
  2254 ;; Return value:  Size  Location     Type
  2255 ;;                  4    2[COMRAM] unsigned char 
  2256 ;; Registers used:
  2257 ;;		wreg, status,2, status,0
  2258 ;; Tracked objects:
  2259 ;;		On entry : 0/0
  2260 ;;		On exit  : 0/0
  2261 ;;		Unchanged: 0/0
  2262 ;; Data sizes:     COMRAM   BANK0   BANK1   BANK2   BANK3   BANK4   BANK5   BANK6   BANK7   BANK8   BANK9  BANK10  BANK1
      +1  BANK12  BANK13  BANK14  BANK15
  2263 ;;      Params:         4       0       0       0       0       0       0       0       0       0       0       0       
      +0       0       0       0       0
  2264 ;;      Locals:         6       0       0       0       0       0       0       0       0       0       0       0       
      +0       0       0       0       0
  2265 ;;      Temps:          4       0       0       0       0       0       0       0       0       0       0       0       
      +0       0       0       0       0
  2266 ;;      Totals:        14       0       0       0       0       0       0       0       0       0       0       0       
      +0       0       0       0       0
  2267 ;;Total ram usage:       14 bytes
  2268 ;; Hardware stack levels used:    1
  2269 ;; Hardware stack levels required when called:    2
  2270 ;; This function calls:
  2271 ;;		Nothing
  2272 ;; This function is called by:
  2273 ;;		_Servo_SetAngle
  2274 ;;		_I2C_Master_Mode_Clock_Configurations
  2275 ;;		_EUSART_Baud_Rate_Calculation
  2276 ;; This function uses a non-reentrant model
  2277 ;;
  2278                           
  2279                           	psect	text10
  2280  002050                     __ptext10:
  2281                           	callstack 0
  2282  002050                     ___xxtofl:
  2283                           	callstack 24
  2284                           
  2285                           ;incstack = 0
  2286                           ;___xxtofl@sign stored from wreg
  2287  002050  6E0B               	movwf	___xxtofl@sign^0,c
  2288  002052  500B               	movf	___xxtofl@sign^0,w,c
  2289  002054  B4D8               	btfsc	status,2,c
  2290  002056  EF2F  F010         	goto	u8151
  2291  00205A  EF31  F010         	goto	u8150
  2292  00205E                     u8151:
  2293  00205E  EF53  F010         	goto	l2305
  2294  002062                     u8150:
  2295  002062  BE06               	btfsc	(___xxtofl@val+3)^0,7,c
  2296  002064  EF38  F010         	goto	u8160
  2297  002068  EF36  F010         	goto	u8161
  2298  00206C                     u8161:
  2299  00206C  EF53  F010         	goto	l2305
  2300  002070                     u8160:
  2301  002070  C003  F007         	movff	___xxtofl@val,??___xxtofl
  2302  002074  C004  F008         	movff	___xxtofl@val+1,??___xxtofl+1
  2303  002078  C005  F009         	movff	___xxtofl@val+2,??___xxtofl+2
  2304  00207C  C006  F00A         	movff	___xxtofl@val+3,??___xxtofl+3
  2305  002080  1E07               	comf	??___xxtofl^0,f,c
  2306  002082  1E08               	comf	(??___xxtofl+1)^0,f,c
  2307  002084  1E09               	comf	(??___xxtofl+2)^0,f,c
  2308  002086  1E0A               	comf	(??___xxtofl+3)^0,f,c
  2309  002088  2A07               	incf	??___xxtofl^0,f,c
  2310  00208A  0E00               	movlw	0
  2311  00208C  2208               	addwfc	(??___xxtofl+1)^0,f,c
  2312  00208E  2209               	addwfc	(??___xxtofl+2)^0,f,c
  2313  002090  220A               	addwfc	(??___xxtofl+3)^0,f,c
  2314  002092  C007  F00D         	movff	??___xxtofl,___xxtofl@arg
  2315  002096  C008  F00E         	movff	??___xxtofl+1,___xxtofl@arg+1
  2316  00209A  C009  F00F         	movff	??___xxtofl+2,___xxtofl@arg+2
  2317  00209E  C00A  F010         	movff	??___xxtofl+3,___xxtofl@arg+3
  2318  0020A2  EF5B  F010         	goto	l8070
  2319  0020A6                     l2305:
  2320  0020A6  C003  F00D         	movff	___xxtofl@val,___xxtofl@arg
  2321  0020AA  C004  F00E         	movff	___xxtofl@val+1,___xxtofl@arg+1
  2322  0020AE  C005  F00F         	movff	___xxtofl@val+2,___xxtofl@arg+2
  2323  0020B2  C006  F010         	movff	___xxtofl@val+3,___xxtofl@arg+3
  2324  0020B6                     l8070:
  2325  0020B6  5003               	movf	___xxtofl@val^0,w,c
  2326  0020B8  1004               	iorwf	(___xxtofl@val+1)^0,w,c
  2327  0020BA  1005               	iorwf	(___xxtofl@val+2)^0,w,c
  2328  0020BC  1006               	iorwf	(___xxtofl@val+3)^0,w,c
  2329  0020BE  A4D8               	btfss	status,2,c
  2330  0020C0  EF64  F010         	goto	u8171
  2331  0020C4  EF66  F010         	goto	u8170
  2332  0020C8                     u8171:
  2333  0020C8  EF70  F010         	goto	l8076
  2334  0020CC                     u8170:
  2335  0020CC  0E00               	movlw	0
  2336  0020CE  6E03               	movwf	?___xxtofl^0,c
  2337  0020D0  0E00               	movlw	0
  2338  0020D2  6E04               	movwf	(?___xxtofl+1)^0,c
  2339  0020D4  0E00               	movlw	0
  2340  0020D6  6E05               	movwf	(?___xxtofl+2)^0,c
  2341  0020D8  0E00               	movlw	0
  2342  0020DA  6E06               	movwf	(?___xxtofl+3)^0,c
  2343  0020DC  EF01  F011         	goto	l2308
  2344  0020E0                     l8076:
  2345  0020E0  0E96               	movlw	150
  2346  0020E2  6E0C               	movwf	___xxtofl@exp^0,c
  2347  0020E4  EF7A  F010         	goto	l8080
  2348  0020E8                     l8078:
  2349  0020E8  2A0C               	incf	___xxtofl@exp^0,f,c
  2350  0020EA  90D8               	bcf	status,0,c
  2351  0020EC  3210               	rrcf	(___xxtofl@arg+3)^0,f,c
  2352  0020EE  320F               	rrcf	(___xxtofl@arg+2)^0,f,c
  2353  0020F0  320E               	rrcf	(___xxtofl@arg+1)^0,f,c
  2354  0020F2  320D               	rrcf	___xxtofl@arg^0,f,c
  2355  0020F4                     l8080:
  2356  0020F4  0E00               	movlw	0
  2357  0020F6  140D               	andwf	___xxtofl@arg^0,w,c
  2358  0020F8  6E07               	movwf	??___xxtofl^0,c
  2359  0020FA  0E00               	movlw	0
  2360  0020FC  140E               	andwf	(___xxtofl@arg+1)^0,w,c
  2361  0020FE  6E08               	movwf	(??___xxtofl+1)^0,c
  2362  002100  0E00               	movlw	0
  2363  002102  140F               	andwf	(___xxtofl@arg+2)^0,w,c
  2364  002104  6E09               	movwf	(??___xxtofl+2)^0,c
  2365  002106  0EFE               	movlw	254
  2366  002108  1410               	andwf	(___xxtofl@arg+3)^0,w,c
  2367  00210A  6E0A               	movwf	(??___xxtofl+3)^0,c
  2368  00210C  5007               	movf	??___xxtofl^0,w,c
  2369  00210E  1008               	iorwf	(??___xxtofl+1)^0,w,c
  2370  002110  1009               	iorwf	(??___xxtofl+2)^0,w,c
  2371  002112  100A               	iorwf	(??___xxtofl+3)^0,w,c
  2372  002114  A4D8               	btfss	status,2,c
  2373  002116  EF8F  F010         	goto	u8181
  2374  00211A  EF91  F010         	goto	u8180
  2375  00211E                     u8181:
  2376  00211E  EF74  F010         	goto	l8078
  2377  002122                     u8180:
  2378  002122  EF9F  F010         	goto	l2312
  2379  002126                     l8082:
  2380  002126  2A0C               	incf	___xxtofl@exp^0,f,c
  2381  002128  0E01               	movlw	1
  2382  00212A  260D               	addwf	___xxtofl@arg^0,f,c
  2383  00212C  0E00               	movlw	0
  2384  00212E  220E               	addwfc	(___xxtofl@arg+1)^0,f,c
  2385  002130  220F               	addwfc	(___xxtofl@arg+2)^0,f,c
  2386  002132  2210               	addwfc	(___xxtofl@arg+3)^0,f,c
  2387  002134  90D8               	bcf	status,0,c
  2388  002136  3210               	rrcf	(___xxtofl@arg+3)^0,f,c
  2389  002138  320F               	rrcf	(___xxtofl@arg+2)^0,f,c
  2390  00213A  320E               	rrcf	(___xxtofl@arg+1)^0,f,c
  2391  00213C  320D               	rrcf	___xxtofl@arg^0,f,c
  2392  00213E                     l2312:
  2393  00213E  0E00               	movlw	0
  2394  002140  140D               	andwf	___xxtofl@arg^0,w,c
  2395  002142  6E07               	movwf	??___xxtofl^0,c
  2396  002144  0E00               	movlw	0
  2397  002146  140E               	andwf	(___xxtofl@arg+1)^0,w,c
  2398  002148  6E08               	movwf	(??___xxtofl+1)^0,c
  2399  00214A  0E00               	movlw	0
  2400  00214C  140F               	andwf	(___xxtofl@arg+2)^0,w,c
  2401  00214E  6E09               	movwf	(??___xxtofl+2)^0,c
  2402  002150  0EFF               	movlw	255
  2403  002152  1410               	andwf	(___xxtofl@arg+3)^0,w,c
  2404  002154  6E0A               	movwf	(??___xxtofl+3)^0,c
  2405  002156  5007               	movf	??___xxtofl^0,w,c
  2406  002158  1008               	iorwf	(??___xxtofl+1)^0,w,c
  2407  00215A  1009               	iorwf	(??___xxtofl+2)^0,w,c
  2408  00215C  100A               	iorwf	(??___xxtofl+3)^0,w,c
  2409  00215E  A4D8               	btfss	status,2,c
  2410  002160  EFB4  F010         	goto	u8191
  2411  002164  EFB6  F010         	goto	u8190
  2412  002168                     u8191:
  2413  002168  EF93  F010         	goto	l8082
  2414  00216C                     u8190:
  2415  00216C  EFBE  F010         	goto	l8090
  2416  002170                     l8088:
  2417  002170  060C               	decf	___xxtofl@exp^0,f,c
  2418  002172  90D8               	bcf	status,0,c
  2419  002174  360D               	rlcf	___xxtofl@arg^0,f,c
  2420  002176  360E               	rlcf	(___xxtofl@arg+1)^0,f,c
  2421  002178  360F               	rlcf	(___xxtofl@arg+2)^0,f,c
  2422  00217A  3610               	rlcf	(___xxtofl@arg+3)^0,f,c
  2423  00217C                     l8090:
  2424  00217C  BE0F               	btfsc	(___xxtofl@arg+2)^0,7,c
  2425  00217E  EFC3  F010         	goto	u8201
  2426  002182  EFC5  F010         	goto	u8200
  2427  002186                     u8201:
  2428  002186  EFCD  F010         	goto	l2319
  2429  00218A                     u8200:
  2430  00218A  0E02               	movlw	2
  2431  00218C  600C               	cpfslt	___xxtofl@exp^0,c
  2432  00218E  EFCB  F010         	goto	u8211
  2433  002192  EFCD  F010         	goto	u8210
  2434  002196                     u8211:
  2435  002196  EFB8  F010         	goto	l8088
  2436  00219A                     u8210:
  2437  00219A                     l2319:
  2438  00219A  B00C               	btfsc	___xxtofl@exp^0,0,c
  2439  00219C  EFD2  F010         	goto	u8221
  2440  0021A0  EFD4  F010         	goto	u8220
  2441  0021A4                     u8221:
  2442  0021A4  EFD5  F010         	goto	l8096
  2443  0021A8                     u8220:
  2444  0021A8  9E0F               	bcf	(___xxtofl@arg+2)^0,7,c
  2445  0021AA                     l8096:
  2446  0021AA  90D8               	bcf	status,0,c
  2447  0021AC  320C               	rrcf	___xxtofl@exp^0,f,c
  2448  0021AE  C00C  F007         	movff	___xxtofl@exp,??___xxtofl
  2449  0021B2  6A08               	clrf	(??___xxtofl+1)^0,c
  2450  0021B4  6A09               	clrf	(??___xxtofl+2)^0,c
  2451  0021B6  6A0A               	clrf	(??___xxtofl+3)^0,c
  2452  0021B8  C007  F00A         	movff	??___xxtofl,??___xxtofl+3
  2453  0021BC  6A09               	clrf	(??___xxtofl+2)^0,c
  2454  0021BE  6A08               	clrf	(??___xxtofl+1)^0,c
  2455  0021C0  6A07               	clrf	??___xxtofl^0,c
  2456  0021C2  5007               	movf	??___xxtofl^0,w,c
  2457  0021C4  120D               	iorwf	___xxtofl@arg^0,f,c
  2458  0021C6  5008               	movf	(??___xxtofl+1)^0,w,c
  2459  0021C8  120E               	iorwf	(___xxtofl@arg+1)^0,f,c
  2460  0021CA  5009               	movf	(??___xxtofl+2)^0,w,c
  2461  0021CC  120F               	iorwf	(___xxtofl@arg+2)^0,f,c
  2462  0021CE  500A               	movf	(??___xxtofl+3)^0,w,c
  2463  0021D0  1210               	iorwf	(___xxtofl@arg+3)^0,f,c
  2464  0021D2  500B               	movf	___xxtofl@sign^0,w,c
  2465  0021D4  B4D8               	btfsc	status,2,c
  2466  0021D6  EFEF  F010         	goto	u8231
  2467  0021DA  EFF1  F010         	goto	u8230
  2468  0021DE                     u8231:
  2469  0021DE  EFF9  F010         	goto	l8106
  2470  0021E2                     u8230:
  2471  0021E2  BE06               	btfsc	(___xxtofl@val+3)^0,7,c
  2472  0021E4  EFF8  F010         	goto	u8240
  2473  0021E8  EFF6  F010         	goto	u8241
  2474  0021EC                     u8241:
  2475  0021EC  EFF9  F010         	goto	l8106
  2476  0021F0                     u8240:
  2477  0021F0  8E10               	bsf	(___xxtofl@arg+3)^0,7,c
  2478  0021F2                     l8106:
  2479  0021F2  C00D  F003         	movff	___xxtofl@arg,?___xxtofl
  2480  0021F6  C00E  F004         	movff	___xxtofl@arg+1,?___xxtofl+1
  2481  0021FA  C00F  F005         	movff	___xxtofl@arg+2,?___xxtofl+2
  2482  0021FE  C010  F006         	movff	___xxtofl@arg+3,?___xxtofl+3
  2483  002202                     l2308:
  2484  002202  0012               	return		;funcret
  2485  002204                     __end_of___xxtofl:
  2486                           	callstack 0
  2487                           
  2488 ;; *************** function ___fltol *****************
  2489 ;; Defined at:
  2490 ;;		line 43 in file "C:\Program Files\Microchip\xc8\v2.30\pic\sources\c99\common\fltol.c"
  2491 ;; Parameters:    Size  Location     Type
  2492 ;;  f1              4   57[COMRAM] unsigned char 
  2493 ;; Auto vars:     Size  Location     Type
  2494 ;;  exp1            1   66[COMRAM] unsigned char 
  2495 ;;  sign1           1   65[COMRAM] unsigned char 
  2496 ;; Return value:  Size  Location     Type
  2497 ;;                  4   57[COMRAM] long 
  2498 ;; Registers used:
  2499 ;;		wreg, status,2, status,0
  2500 ;; Tracked objects:
  2501 ;;		On entry : 0/0
  2502 ;;		On exit  : 0/0
  2503 ;;		Unchanged: 0/0
  2504 ;; Data sizes:     COMRAM   BANK0   BANK1   BANK2   BANK3   BANK4   BANK5   BANK6   BANK7   BANK8   BANK9  BANK10  BANK1
      +1  BANK12  BANK13  BANK14  BANK15
  2505 ;;      Params:         4       0       0       0       0       0       0       0       0       0       0       0       
      +0       0       0       0       0
  2506 ;;      Locals:         2       0       0       0       0       0       0       0       0       0       0       0       
      +0       0       0       0       0
  2507 ;;      Temps:          4       0       0       0       0       0       0       0       0       0       0       0       
      +0       0       0       0       0
  2508 ;;      Totals:        10       0       0       0       0       0       0       0       0       0       0       0       
      +0       0       0       0       0
  2509 ;;Total ram usage:       10 bytes
  2510 ;; Hardware stack levels used:    1
  2511 ;; Hardware stack levels required when called:    2
  2512 ;; This function calls:
  2513 ;;		Nothing
  2514 ;; This function is called by:
  2515 ;;		_Servo_SetAngle
  2516 ;;		_I2C_Master_Mode_Clock_Configurations
  2517 ;;		_EUSART_Baud_Rate_Calculation
  2518 ;; This function uses a non-reentrant model
  2519 ;;
  2520                           
  2521                           	psect	text11
  2522  00234A                     __ptext11:
  2523                           	callstack 0
  2524  00234A                     ___fltol:
  2525                           	callstack 24
  2526  00234A  343C               	rlcf	(___fltol@f1+2)^0,w,c
  2527  00234C  343D               	rlcf	(___fltol@f1+3)^0,w,c
  2528  00234E  6E43               	movwf	___fltol@exp1^0,c
  2529  002350  5043               	movf	___fltol@exp1^0,w,c
  2530  002352  A4D8               	btfss	status,2,c
  2531  002354  EFAE  F011         	goto	u8081
  2532  002358  EFB0  F011         	goto	u8080
  2533  00235C                     u8081:
  2534  00235C  EFBA  F011         	goto	l8026
  2535  002360                     u8080:
  2536  002360                     l8022:
  2537  002360  0E00               	movlw	0
  2538  002362  6E3A               	movwf	?___fltol^0,c
  2539  002364  0E00               	movlw	0
  2540  002366  6E3B               	movwf	(?___fltol+1)^0,c
  2541  002368  0E00               	movlw	0
  2542  00236A  6E3C               	movwf	(?___fltol+2)^0,c
  2543  00236C  0E00               	movlw	0
  2544  00236E  6E3D               	movwf	(?___fltol+3)^0,c
  2545  002370  EF27  F012         	goto	l1947
  2546  002374                     l8026:
  2547  002374  C03A  F03E         	movff	___fltol@f1,??___fltol
  2548  002378  C03B  F03F         	movff	___fltol@f1+1,??___fltol+1
  2549  00237C  C03C  F040         	movff	___fltol@f1+2,??___fltol+2
  2550  002380  C03D  F041         	movff	___fltol@f1+3,??___fltol+3
  2551  002384  0E20               	movlw	32
  2552  002386  EFCA  F011         	goto	u8090
  2553  00238A                     u8095:
  2554  00238A  90D8               	bcf	status,0,c
  2555  00238C  3241               	rrcf	(??___fltol+3)^0,f,c
  2556  00238E  3240               	rrcf	(??___fltol+2)^0,f,c
  2557  002390  323F               	rrcf	(??___fltol+1)^0,f,c
  2558  002392  323E               	rrcf	??___fltol^0,f,c
  2559  002394                     u8090:
  2560  002394  2EE8               	decfsz	wreg,f,c
  2561  002396  EFC5  F011         	goto	u8095
  2562  00239A  503E               	movf	??___fltol^0,w,c
  2563  00239C  6E42               	movwf	___fltol@sign1^0,c
  2564  00239E  8E3C               	bsf	(___fltol@f1+2)^0,7,c
  2565  0023A0  0EFF               	movlw	255
  2566  0023A2  163A               	andwf	___fltol@f1^0,f,c
  2567  0023A4  0EFF               	movlw	255
  2568  0023A6  163B               	andwf	(___fltol@f1+1)^0,f,c
  2569  0023A8  0EFF               	movlw	255
  2570  0023AA  163C               	andwf	(___fltol@f1+2)^0,f,c
  2571  0023AC  0E00               	movlw	0
  2572  0023AE  163D               	andwf	(___fltol@f1+3)^0,f,c
  2573  0023B0  0E96               	movlw	150
  2574  0023B2  5E43               	subwf	___fltol@exp1^0,f,c
  2575  0023B4  BE43               	btfsc	___fltol@exp1^0,7,c
  2576  0023B6  EFE1  F011         	goto	u8100
  2577  0023BA  EFDF  F011         	goto	u8101
  2578  0023BE                     u8101:
  2579  0023BE  EFF7  F011         	goto	l8046
  2580  0023C2                     u8100:
  2581  0023C2  5043               	movf	___fltol@exp1^0,w,c
  2582  0023C4  0A80               	xorlw	128
  2583  0023C6  0F97               	addlw	151
  2584  0023C8  B0D8               	btfsc	status,0,c
  2585  0023CA  EFE9  F011         	goto	u8111
  2586  0023CE  EFEB  F011         	goto	u8110
  2587  0023D2                     u8111:
  2588  0023D2  EFED  F011         	goto	l8042
  2589  0023D6                     u8110:
  2590  0023D6  EFB0  F011         	goto	l8022
  2591  0023DA                     l8042:
  2592  0023DA  90D8               	bcf	status,0,c
  2593  0023DC  323D               	rrcf	(___fltol@f1+3)^0,f,c
  2594  0023DE  323C               	rrcf	(___fltol@f1+2)^0,f,c
  2595  0023E0  323B               	rrcf	(___fltol@f1+1)^0,f,c
  2596  0023E2  323A               	rrcf	___fltol@f1^0,f,c
  2597  0023E4  3E43               	incfsz	___fltol@exp1^0,f,c
  2598  0023E6  EFED  F011         	goto	l8042
  2599  0023EA  EF0F  F012         	goto	l8056
  2600  0023EE                     l8046:
  2601  0023EE  0E1F               	movlw	31
  2602  0023F0  6443               	cpfsgt	___fltol@exp1^0,c
  2603  0023F2  EFFD  F011         	goto	u8121
  2604  0023F6  EFFF  F011         	goto	u8120
  2605  0023FA                     u8121:
  2606  0023FA  EF07  F012         	goto	l8054
  2607  0023FE                     u8120:
  2608  0023FE  EFB0  F011         	goto	l8022
  2609  002402                     l8052:
  2610  002402  90D8               	bcf	status,0,c
  2611  002404  363A               	rlcf	___fltol@f1^0,f,c
  2612  002406  363B               	rlcf	(___fltol@f1+1)^0,f,c
  2613  002408  363C               	rlcf	(___fltol@f1+2)^0,f,c
  2614  00240A  363D               	rlcf	(___fltol@f1+3)^0,f,c
  2615  00240C  0643               	decf	___fltol@exp1^0,f,c
  2616  00240E                     l8054:
  2617  00240E  5043               	movf	___fltol@exp1^0,w,c
  2618  002410  A4D8               	btfss	status,2,c
  2619  002412  EF0D  F012         	goto	u8131
  2620  002416  EF0F  F012         	goto	u8130
  2621  00241A                     u8131:
  2622  00241A  EF01  F012         	goto	l8052
  2623  00241E                     u8130:
  2624  00241E                     l8056:
  2625  00241E  5042               	movf	___fltol@sign1^0,w,c
  2626  002420  B4D8               	btfsc	status,2,c
  2627  002422  EF15  F012         	goto	u8141
  2628  002426  EF17  F012         	goto	u8140
  2629  00242A                     u8141:
  2630  00242A  EF1F  F012         	goto	l8060
  2631  00242E                     u8140:
  2632  00242E  1E3D               	comf	(___fltol@f1+3)^0,f,c
  2633  002430  1E3C               	comf	(___fltol@f1+2)^0,f,c
  2634  002432  1E3B               	comf	(___fltol@f1+1)^0,f,c
  2635  002434  6C3A               	negf	___fltol@f1^0,c
  2636  002436  0E00               	movlw	0
  2637  002438  223B               	addwfc	(___fltol@f1+1)^0,f,c
  2638  00243A  223C               	addwfc	(___fltol@f1+2)^0,f,c
  2639  00243C  223D               	addwfc	(___fltol@f1+3)^0,f,c
  2640  00243E                     l8060:
  2641  00243E  C03A  F03A         	movff	___fltol@f1,?___fltol
  2642  002442  C03B  F03B         	movff	___fltol@f1+1,?___fltol+1
  2643  002446  C03C  F03C         	movff	___fltol@f1+2,?___fltol+2
  2644  00244A  C03D  F03D         	movff	___fltol@f1+3,?___fltol+3
  2645  00244E                     l1947:
  2646  00244E  0012               	return		;funcret
  2647  002450                     __end_of___fltol:
  2648                           	callstack 0
  2649                           
  2650 ;; *************** function ___flmul *****************
  2651 ;; Defined at:
  2652 ;;		line 8 in file "C:\Program Files\Microchip\xc8\v2.30\pic\sources\c99\common\sprcmul.c"
  2653 ;; Parameters:    Size  Location     Type
  2654 ;;  b               4   16[COMRAM] long 
  2655 ;;  a               4   20[COMRAM] long 
  2656 ;; Auto vars:     Size  Location     Type
  2657 ;;  prod            4   35[COMRAM] struct .
  2658 ;;  grs             4   30[COMRAM] unsigned long 
  2659 ;;  temp            2   39[COMRAM] struct .
  2660 ;;  bexp            1   34[COMRAM] unsigned char 
  2661 ;;  aexp            1   29[COMRAM] unsigned char 
  2662 ;;  sign            1   28[COMRAM] unsigned char 
  2663 ;; Return value:  Size  Location     Type
  2664 ;;                  4   16[COMRAM] unsigned char 
  2665 ;; Registers used:
  2666 ;;		wreg, status,2, status,0, prodl, prodh
  2667 ;; Tracked objects:
  2668 ;;		On entry : 0/0
  2669 ;;		On exit  : 0/0
  2670 ;;		Unchanged: 0/0
  2671 ;; Data sizes:     COMRAM   BANK0   BANK1   BANK2   BANK3   BANK4   BANK5   BANK6   BANK7   BANK8   BANK9  BANK10  BANK1
      +1  BANK12  BANK13  BANK14  BANK15
  2672 ;;      Params:         8       0       0       0       0       0       0       0       0       0       0       0       
      +0       0       0       0       0
  2673 ;;      Locals:        13       0       0       0       0       0       0       0       0       0       0       0       
      +0       0       0       0       0
  2674 ;;      Temps:          4       0       0       0       0       0       0       0       0       0       0       0       
      +0       0       0       0       0
  2675 ;;      Totals:        25       0       0       0       0       0       0       0       0       0       0       0       
      +0       0       0       0       0
  2676 ;;Total ram usage:       25 bytes
  2677 ;; Hardware stack levels used:    1
  2678 ;; Hardware stack levels required when called:    2
  2679 ;; This function calls:
  2680 ;;		Nothing
  2681 ;; This function is called by:
  2682 ;;		_Servo_SetAngle
  2683 ;; This function uses a non-reentrant model
  2684 ;;
  2685                           
  2686                           	psect	text12
  2687  0014C6                     __ptext12:
  2688                           	callstack 0
  2689  0014C6                     ___flmul:
  2690                           	callstack 27
  2691  0014C6  5014               	movf	(___flmul@b+3)^0,w,c
  2692  0014C8  0B80               	andlw	128
  2693  0014CA  6E1D               	movwf	___flmul@sign^0,c
  2694  0014CC  5014               	movf	(___flmul@b+3)^0,w,c
  2695  0014CE  2414               	addwf	(___flmul@b+3)^0,w,c
  2696  0014D0  6E23               	movwf	___flmul@bexp^0,c
  2697  0014D2  AE13               	btfss	(___flmul@b+2)^0,7,c
  2698  0014D4  EF6E  F00A         	goto	u8481
  2699  0014D8  EF70  F00A         	goto	u8480
  2700  0014DC                     u8481:
  2701  0014DC  EF71  F00A         	goto	l8260
  2702  0014E0                     u8480:
  2703  0014E0  8023               	bsf	___flmul@bexp^0,0,c
  2704  0014E2                     l8260:
  2705  0014E2  5023               	movf	___flmul@bexp^0,w,c
  2706  0014E4  B4D8               	btfsc	status,2,c
  2707  0014E6  EF77  F00A         	goto	u8491
  2708  0014EA  EF79  F00A         	goto	u8490
  2709  0014EE                     u8491:
  2710  0014EE  EF8C  F00A         	goto	l8268
  2711  0014F2                     u8490:
  2712  0014F2  2823               	incf	___flmul@bexp^0,w,c
  2713  0014F4  A4D8               	btfss	status,2,c
  2714  0014F6  EF7F  F00A         	goto	u8501
  2715  0014FA  EF81  F00A         	goto	u8500
  2716  0014FE                     u8501:
  2717  0014FE  EF89  F00A         	goto	l8266
  2718  001502                     u8500:
  2719  001502  0E00               	movlw	0
  2720  001504  6E11               	movwf	___flmul@b^0,c
  2721  001506  0E00               	movlw	0
  2722  001508  6E12               	movwf	(___flmul@b+1)^0,c
  2723  00150A  0E00               	movlw	0
  2724  00150C  6E13               	movwf	(___flmul@b+2)^0,c
  2725  00150E  0E00               	movlw	0
  2726  001510  6E14               	movwf	(___flmul@b+3)^0,c
  2727  001512                     l8266:
  2728  001512  8E13               	bsf	(___flmul@b+2)^0,7,c
  2729  001514  EF94  F00A         	goto	l8270
  2730  001518                     l8268:
  2731  001518  0E00               	movlw	0
  2732  00151A  6E11               	movwf	___flmul@b^0,c
  2733  00151C  0E00               	movlw	0
  2734  00151E  6E12               	movwf	(___flmul@b+1)^0,c
  2735  001520  0E00               	movlw	0
  2736  001522  6E13               	movwf	(___flmul@b+2)^0,c
  2737  001524  0E00               	movlw	0
  2738  001526  6E14               	movwf	(___flmul@b+3)^0,c
  2739  001528                     l8270:
  2740  001528  5018               	movf	(___flmul@a+3)^0,w,c
  2741  00152A  0B80               	andlw	128
  2742  00152C  1A1D               	xorwf	___flmul@sign^0,f,c
  2743  00152E  5018               	movf	(___flmul@a+3)^0,w,c
  2744  001530  2418               	addwf	(___flmul@a+3)^0,w,c
  2745  001532  6E1E               	movwf	___flmul@aexp^0,c
  2746  001534  AE17               	btfss	(___flmul@a+2)^0,7,c
  2747  001536  EF9F  F00A         	goto	u8511
  2748  00153A  EFA1  F00A         	goto	u8510
  2749  00153E                     u8511:
  2750  00153E  EFA2  F00A         	goto	l8278
  2751  001542                     u8510:
  2752  001542  801E               	bsf	___flmul@aexp^0,0,c
  2753  001544                     l8278:
  2754  001544  501E               	movf	___flmul@aexp^0,w,c
  2755  001546  B4D8               	btfsc	status,2,c
  2756  001548  EFA8  F00A         	goto	u8521
  2757  00154C  EFAA  F00A         	goto	u8520
  2758  001550                     u8521:
  2759  001550  EFBD  F00A         	goto	l8286
  2760  001554                     u8520:
  2761  001554  281E               	incf	___flmul@aexp^0,w,c
  2762  001556  A4D8               	btfss	status,2,c
  2763  001558  EFB0  F00A         	goto	u8531
  2764  00155C  EFB2  F00A         	goto	u8530
  2765  001560                     u8531:
  2766  001560  EFBA  F00A         	goto	l8284
  2767  001564                     u8530:
  2768  001564  0E00               	movlw	0
  2769  001566  6E15               	movwf	___flmul@a^0,c
  2770  001568  0E00               	movlw	0
  2771  00156A  6E16               	movwf	(___flmul@a+1)^0,c
  2772  00156C  0E00               	movlw	0
  2773  00156E  6E17               	movwf	(___flmul@a+2)^0,c
  2774  001570  0E00               	movlw	0
  2775  001572  6E18               	movwf	(___flmul@a+3)^0,c
  2776  001574                     l8284:
  2777  001574  8E17               	bsf	(___flmul@a+2)^0,7,c
  2778  001576  EFC5  F00A         	goto	l2264
  2779  00157A                     l8286:
  2780  00157A  0E00               	movlw	0
  2781  00157C  6E15               	movwf	___flmul@a^0,c
  2782  00157E  0E00               	movlw	0
  2783  001580  6E16               	movwf	(___flmul@a+1)^0,c
  2784  001582  0E00               	movlw	0
  2785  001584  6E17               	movwf	(___flmul@a+2)^0,c
  2786  001586  0E00               	movlw	0
  2787  001588  6E18               	movwf	(___flmul@a+3)^0,c
  2788  00158A                     l2264:
  2789  00158A  501E               	movf	___flmul@aexp^0,w,c
  2790  00158C  B4D8               	btfsc	status,2,c
  2791  00158E  EFCB  F00A         	goto	u8541
  2792  001592  EFCD  F00A         	goto	u8540
  2793  001596                     u8541:
  2794  001596  EFD5  F00A         	goto	l8290
  2795  00159A                     u8540:
  2796  00159A  5023               	movf	___flmul@bexp^0,w,c
  2797  00159C  A4D8               	btfss	status,2,c
  2798  00159E  EFD3  F00A         	goto	u8551
  2799  0015A2  EFD5  F00A         	goto	u8550
  2800  0015A6                     u8551:
  2801  0015A6  EFDF  F00A         	goto	l8294
  2802  0015AA                     u8550:
  2803  0015AA                     l8290:
  2804  0015AA  0E00               	movlw	0
  2805  0015AC  6E11               	movwf	?___flmul^0,c
  2806  0015AE  0E00               	movlw	0
  2807  0015B0  6E12               	movwf	(?___flmul+1)^0,c
  2808  0015B2  0E00               	movlw	0
  2809  0015B4  6E13               	movwf	(?___flmul+2)^0,c
  2810  0015B6  0E00               	movlw	0
  2811  0015B8  6E14               	movwf	(?___flmul+3)^0,c
  2812  0015BA  EF77  F00C         	goto	l2268
  2813  0015BE                     l8294:
  2814  0015BE  5017               	movf	(___flmul@a+2)^0,w,c
  2815  0015C0  0211               	mulwf	___flmul@b^0,c
  2816  0015C2  CFF3 F028          	movff	prodl,___flmul@temp
  2817  0015C6  CFF4 F029          	movff	prodh,___flmul@temp+1
  2818  0015CA  5028               	movf	___flmul@temp^0,w,c
  2819  0015CC  6E1F               	movwf	___flmul@grs^0,c
  2820  0015CE  6A20               	clrf	(___flmul@grs+1)^0,c
  2821  0015D0  6A21               	clrf	(___flmul@grs+2)^0,c
  2822  0015D2  6A22               	clrf	(___flmul@grs+3)^0,c
  2823  0015D4  5029               	movf	(___flmul@temp+1)^0,w,c
  2824  0015D6  6E24               	movwf	___flmul@prod^0,c
  2825  0015D8  6A25               	clrf	(___flmul@prod+1)^0,c
  2826  0015DA  6A26               	clrf	(___flmul@prod+2)^0,c
  2827  0015DC  6A27               	clrf	(___flmul@prod+3)^0,c
  2828  0015DE  5016               	movf	(___flmul@a+1)^0,w,c
  2829  0015E0  0212               	mulwf	(___flmul@b+1)^0,c
  2830  0015E2  CFF3 F028          	movff	prodl,___flmul@temp
  2831  0015E6  CFF4 F029          	movff	prodh,___flmul@temp+1
  2832  0015EA  5028               	movf	___flmul@temp^0,w,c
  2833  0015EC  261F               	addwf	___flmul@grs^0,f,c
  2834  0015EE  0E00               	movlw	0
  2835  0015F0  2220               	addwfc	(___flmul@grs+1)^0,f,c
  2836  0015F2  2221               	addwfc	(___flmul@grs+2)^0,f,c
  2837  0015F4  2222               	addwfc	(___flmul@grs+3)^0,f,c
  2838  0015F6  5029               	movf	(___flmul@temp+1)^0,w,c
  2839  0015F8  2624               	addwf	___flmul@prod^0,f,c
  2840  0015FA  0E00               	movlw	0
  2841  0015FC  2225               	addwfc	(___flmul@prod+1)^0,f,c
  2842  0015FE  2226               	addwfc	(___flmul@prod+2)^0,f,c
  2843  001600  2227               	addwfc	(___flmul@prod+3)^0,f,c
  2844  001602  5015               	movf	___flmul@a^0,w,c
  2845  001604  0213               	mulwf	(___flmul@b+2)^0,c
  2846  001606  CFF3 F028          	movff	prodl,___flmul@temp
  2847  00160A  CFF4 F029          	movff	prodh,___flmul@temp+1
  2848  00160E  5028               	movf	___flmul@temp^0,w,c
  2849  001610  261F               	addwf	___flmul@grs^0,f,c
  2850  001612  0E00               	movlw	0
  2851  001614  2220               	addwfc	(___flmul@grs+1)^0,f,c
  2852  001616  2221               	addwfc	(___flmul@grs+2)^0,f,c
  2853  001618  2222               	addwfc	(___flmul@grs+3)^0,f,c
  2854  00161A  5029               	movf	(___flmul@temp+1)^0,w,c
  2855  00161C  2624               	addwf	___flmul@prod^0,f,c
  2856  00161E  0E00               	movlw	0
  2857  001620  2225               	addwfc	(___flmul@prod+1)^0,f,c
  2858  001622  2226               	addwfc	(___flmul@prod+2)^0,f,c
  2859  001624  2227               	addwfc	(___flmul@prod+3)^0,f,c
  2860  001626  C021  F022         	movff	___flmul@grs+2,___flmul@grs+3
  2861  00162A  C020  F021         	movff	___flmul@grs+1,___flmul@grs+2
  2862  00162E  C01F  F020         	movff	___flmul@grs,___flmul@grs+1
  2863  001632  6A1F               	clrf	___flmul@grs^0,c
  2864  001634  5015               	movf	___flmul@a^0,w,c
  2865  001636  0212               	mulwf	(___flmul@b+1)^0,c
  2866  001638  CFF3 F028          	movff	prodl,___flmul@temp
  2867  00163C  CFF4 F029          	movff	prodh,___flmul@temp+1
  2868  001640  5028               	movf	___flmul@temp^0,w,c
  2869  001642  261F               	addwf	___flmul@grs^0,f,c
  2870  001644  5029               	movf	(___flmul@temp+1)^0,w,c
  2871  001646  2220               	addwfc	(___flmul@grs+1)^0,f,c
  2872  001648  0E00               	movlw	0
  2873  00164A  2221               	addwfc	(___flmul@grs+2)^0,f,c
  2874  00164C  0E00               	movlw	0
  2875  00164E  2222               	addwfc	(___flmul@grs+3)^0,f,c
  2876  001650  5016               	movf	(___flmul@a+1)^0,w,c
  2877  001652  0211               	mulwf	___flmul@b^0,c
  2878  001654  CFF3 F028          	movff	prodl,___flmul@temp
  2879  001658  CFF4 F029          	movff	prodh,___flmul@temp+1
  2880  00165C  5028               	movf	___flmul@temp^0,w,c
  2881  00165E  261F               	addwf	___flmul@grs^0,f,c
  2882  001660  5029               	movf	(___flmul@temp+1)^0,w,c
  2883  001662  2220               	addwfc	(___flmul@grs+1)^0,f,c
  2884  001664  0E00               	movlw	0
  2885  001666  2221               	addwfc	(___flmul@grs+2)^0,f,c
  2886  001668  0E00               	movlw	0
  2887  00166A  2222               	addwfc	(___flmul@grs+3)^0,f,c
  2888  00166C  C021  F022         	movff	___flmul@grs+2,___flmul@grs+3
  2889  001670  C020  F021         	movff	___flmul@grs+1,___flmul@grs+2
  2890  001674  C01F  F020         	movff	___flmul@grs,___flmul@grs+1
  2891  001678  6A1F               	clrf	___flmul@grs^0,c
  2892  00167A  5015               	movf	___flmul@a^0,w,c
  2893  00167C  0211               	mulwf	___flmul@b^0,c
  2894  00167E  CFF3 F028          	movff	prodl,___flmul@temp
  2895  001682  CFF4 F029          	movff	prodh,___flmul@temp+1
  2896  001686  5028               	movf	___flmul@temp^0,w,c
  2897  001688  261F               	addwf	___flmul@grs^0,f,c
  2898  00168A  5029               	movf	(___flmul@temp+1)^0,w,c
  2899  00168C  2220               	addwfc	(___flmul@grs+1)^0,f,c
  2900  00168E  0E00               	movlw	0
  2901  001690  2221               	addwfc	(___flmul@grs+2)^0,f,c
  2902  001692  0E00               	movlw	0
  2903  001694  2222               	addwfc	(___flmul@grs+3)^0,f,c
  2904  001696  5017               	movf	(___flmul@a+2)^0,w,c
  2905  001698  0212               	mulwf	(___flmul@b+1)^0,c
  2906  00169A  CFF3 F028          	movff	prodl,___flmul@temp
  2907  00169E  CFF4 F029          	movff	prodh,___flmul@temp+1
  2908  0016A2  5028               	movf	___flmul@temp^0,w,c
  2909  0016A4  2624               	addwf	___flmul@prod^0,f,c
  2910  0016A6  5029               	movf	(___flmul@temp+1)^0,w,c
  2911  0016A8  2225               	addwfc	(___flmul@prod+1)^0,f,c
  2912  0016AA  0E00               	movlw	0
  2913  0016AC  2226               	addwfc	(___flmul@prod+2)^0,f,c
  2914  0016AE  0E00               	movlw	0
  2915  0016B0  2227               	addwfc	(___flmul@prod+3)^0,f,c
  2916  0016B2  5016               	movf	(___flmul@a+1)^0,w,c
  2917  0016B4  0213               	mulwf	(___flmul@b+2)^0,c
  2918  0016B6  CFF3 F028          	movff	prodl,___flmul@temp
  2919  0016BA  CFF4 F029          	movff	prodh,___flmul@temp+1
  2920  0016BE  5028               	movf	___flmul@temp^0,w,c
  2921  0016C0  2624               	addwf	___flmul@prod^0,f,c
  2922  0016C2  5029               	movf	(___flmul@temp+1)^0,w,c
  2923  0016C4  2225               	addwfc	(___flmul@prod+1)^0,f,c
  2924  0016C6  0E00               	movlw	0
  2925  0016C8  2226               	addwfc	(___flmul@prod+2)^0,f,c
  2926  0016CA  0E00               	movlw	0
  2927  0016CC  2227               	addwfc	(___flmul@prod+3)^0,f,c
  2928  0016CE  5017               	movf	(___flmul@a+2)^0,w,c
  2929  0016D0  0213               	mulwf	(___flmul@b+2)^0,c
  2930  0016D2  CFF3 F028          	movff	prodl,___flmul@temp
  2931  0016D6  CFF4 F029          	movff	prodh,___flmul@temp+1
  2932  0016DA  5028               	movf	___flmul@temp^0,w,c
  2933  0016DC  6E19               	movwf	??___flmul^0,c
  2934  0016DE  5029               	movf	(___flmul@temp+1)^0,w,c
  2935  0016E0  6E1A               	movwf	(??___flmul+1)^0,c
  2936  0016E2  6A1B               	clrf	(??___flmul+2)^0,c
  2937  0016E4  6A1C               	clrf	(??___flmul+3)^0,c
  2938  0016E6  C01B  F01C         	movff	??___flmul+2,??___flmul+3
  2939  0016EA  C01A  F01B         	movff	??___flmul+1,??___flmul+2
  2940  0016EE  C019  F01A         	movff	??___flmul,??___flmul+1
  2941  0016F2  6A19               	clrf	??___flmul^0,c
  2942  0016F4  5019               	movf	??___flmul^0,w,c
  2943  0016F6  2624               	addwf	___flmul@prod^0,f,c
  2944  0016F8  501A               	movf	(??___flmul+1)^0,w,c
  2945  0016FA  2225               	addwfc	(___flmul@prod+1)^0,f,c
  2946  0016FC  501B               	movf	(??___flmul+2)^0,w,c
  2947  0016FE  2226               	addwfc	(___flmul@prod+2)^0,f,c
  2948  001700  501C               	movf	(??___flmul+3)^0,w,c
  2949  001702  2227               	addwfc	(___flmul@prod+3)^0,f,c
  2950  001704  C01F  F019         	movff	___flmul@grs,??___flmul
  2951  001708  C020  F01A         	movff	___flmul@grs+1,??___flmul+1
  2952  00170C  C021  F01B         	movff	___flmul@grs+2,??___flmul+2
  2953  001710  C022  F01C         	movff	___flmul@grs+3,??___flmul+3
  2954  001714  0E19               	movlw	25
  2955  001716  EF92  F00B         	goto	u8560
  2956  00171A                     u8565:
  2957  00171A  90D8               	bcf	status,0,c
  2958  00171C  321C               	rrcf	(??___flmul+3)^0,f,c
  2959  00171E  321B               	rrcf	(??___flmul+2)^0,f,c
  2960  001720  321A               	rrcf	(??___flmul+1)^0,f,c
  2961  001722  3219               	rrcf	??___flmul^0,f,c
  2962  001724                     u8560:
  2963  001724  2EE8               	decfsz	wreg,f,c
  2964  001726  EF8D  F00B         	goto	u8565
  2965  00172A  5019               	movf	??___flmul^0,w,c
  2966  00172C  2624               	addwf	___flmul@prod^0,f,c
  2967  00172E  501A               	movf	(??___flmul+1)^0,w,c
  2968  001730  2225               	addwfc	(___flmul@prod+1)^0,f,c
  2969  001732  501B               	movf	(??___flmul+2)^0,w,c
  2970  001734  2226               	addwfc	(___flmul@prod+2)^0,f,c
  2971  001736  501C               	movf	(??___flmul+3)^0,w,c
  2972  001738  2227               	addwfc	(___flmul@prod+3)^0,f,c
  2973  00173A  C021  F022         	movff	___flmul@grs+2,___flmul@grs+3
  2974  00173E  C020  F021         	movff	___flmul@grs+1,___flmul@grs+2
  2975  001742  C01F  F020         	movff	___flmul@grs,___flmul@grs+1
  2976  001746  6A1F               	clrf	___flmul@grs^0,c
  2977  001748  501E               	movf	___flmul@aexp^0,w,c
  2978  00174A  C023  F019         	movff	___flmul@bexp,??___flmul
  2979  00174E  6A1A               	clrf	(??___flmul+1)^0,c
  2980  001750  2619               	addwf	??___flmul^0,f,c
  2981  001752  0E00               	movlw	0
  2982  001754  221A               	addwfc	(??___flmul+1)^0,f,c
  2983  001756  0E82               	movlw	130
  2984  001758  2419               	addwf	??___flmul^0,w,c
  2985  00175A  6E28               	movwf	___flmul@temp^0,c
  2986  00175C  0EFF               	movlw	255
  2987  00175E  201A               	addwfc	(??___flmul+1)^0,w,c
  2988  001760  6E29               	movwf	(___flmul@temp+1)^0,c
  2989  001762  EFC8  F00B         	goto	l8342
  2990  001766                     l8336:
  2991  001766  90D8               	bcf	status,0,c
  2992  001768  3624               	rlcf	___flmul@prod^0,f,c
  2993  00176A  3625               	rlcf	(___flmul@prod+1)^0,f,c
  2994  00176C  3626               	rlcf	(___flmul@prod+2)^0,f,c
  2995  00176E  3627               	rlcf	(___flmul@prod+3)^0,f,c
  2996  001770  AE22               	btfss	(___flmul@grs+3)^0,7,c
  2997  001772  EFBD  F00B         	goto	u8571
  2998  001776  EFBF  F00B         	goto	u8570
  2999  00177A                     u8571:
  3000  00177A  EFC0  F00B         	goto	l2271
  3001  00177E                     u8570:
  3002  00177E  8024               	bsf	___flmul@prod^0,0,c
  3003  001780                     l2271:
  3004  001780  90D8               	bcf	status,0,c
  3005  001782  361F               	rlcf	___flmul@grs^0,f,c
  3006  001784  3620               	rlcf	(___flmul@grs+1)^0,f,c
  3007  001786  3621               	rlcf	(___flmul@grs+2)^0,f,c
  3008  001788  3622               	rlcf	(___flmul@grs+3)^0,f,c
  3009  00178A  0628               	decf	___flmul@temp^0,f,c
  3010  00178C  A0D8               	btfss	status,0,c
  3011  00178E  0629               	decf	(___flmul@temp+1)^0,f,c
  3012  001790                     l8342:
  3013  001790  AE26               	btfss	(___flmul@prod+2)^0,7,c
  3014  001792  EFCD  F00B         	goto	u8581
  3015  001796  EFCF  F00B         	goto	u8580
  3016  00179A                     u8581:
  3017  00179A  EFB3  F00B         	goto	l8336
  3018  00179E                     u8580:
  3019  00179E  0E00               	movlw	0
  3020  0017A0  6E1E               	movwf	___flmul@aexp^0,c
  3021  0017A2  AE22               	btfss	(___flmul@grs+3)^0,7,c
  3022  0017A4  EFD6  F00B         	goto	u8591
  3023  0017A8  EFD8  F00B         	goto	u8590
  3024  0017AC                     u8591:
  3025  0017AC  EFFC  F00B         	goto	l2273
  3026  0017B0                     u8590:
  3027  0017B0  0EFF               	movlw	255
  3028  0017B2  141F               	andwf	___flmul@grs^0,w,c
  3029  0017B4  6E19               	movwf	??___flmul^0,c
  3030  0017B6  0EFF               	movlw	255
  3031  0017B8  1420               	andwf	(___flmul@grs+1)^0,w,c
  3032  0017BA  6E1A               	movwf	(??___flmul+1)^0,c
  3033  0017BC  0EFF               	movlw	255
  3034  0017BE  1421               	andwf	(___flmul@grs+2)^0,w,c
  3035  0017C0  6E1B               	movwf	(??___flmul+2)^0,c
  3036  0017C2  0E7F               	movlw	127
  3037  0017C4  1422               	andwf	(___flmul@grs+3)^0,w,c
  3038  0017C6  6E1C               	movwf	(??___flmul+3)^0,c
  3039  0017C8  5019               	movf	??___flmul^0,w,c
  3040  0017CA  101A               	iorwf	(??___flmul+1)^0,w,c
  3041  0017CC  101B               	iorwf	(??___flmul+2)^0,w,c
  3042  0017CE  101C               	iorwf	(??___flmul+3)^0,w,c
  3043  0017D0  B4D8               	btfsc	status,2,c
  3044  0017D2  EFED  F00B         	goto	u8601
  3045  0017D6  EFEF  F00B         	goto	u8600
  3046  0017DA                     u8601:
  3047  0017DA  EFF3  F00B         	goto	l2274
  3048  0017DE                     u8600:
  3049  0017DE                     l8350:
  3050  0017DE  0E01               	movlw	1
  3051  0017E0  6E1E               	movwf	___flmul@aexp^0,c
  3052  0017E2  EFFC  F00B         	goto	l2273
  3053  0017E6                     l2274:
  3054  0017E6  A024               	btfss	___flmul@prod^0,0,c
  3055  0017E8  EFF8  F00B         	goto	u8611
  3056  0017EC  EFFA  F00B         	goto	u8610
  3057  0017F0                     u8611:
  3058  0017F0  EFFC  F00B         	goto	l2273
  3059  0017F4                     u8610:
  3060  0017F4  EFEF  F00B         	goto	l8350
  3061  0017F8                     l2273:
  3062  0017F8  501E               	movf	___flmul@aexp^0,w,c
  3063  0017FA  B4D8               	btfsc	status,2,c
  3064  0017FC  EF02  F00C         	goto	u8621
  3065  001800  EF04  F00C         	goto	u8620
  3066  001804                     u8621:
  3067  001804  EF28  F00C         	goto	l8362
  3068  001808                     u8620:
  3069  001808  0E01               	movlw	1
  3070  00180A  2624               	addwf	___flmul@prod^0,f,c
  3071  00180C  0E00               	movlw	0
  3072  00180E  2225               	addwfc	(___flmul@prod+1)^0,f,c
  3073  001810  2226               	addwfc	(___flmul@prod+2)^0,f,c
  3074  001812  2227               	addwfc	(___flmul@prod+3)^0,f,c
  3075  001814  A027               	btfss	(___flmul@prod+3)^0,0,c
  3076  001816  EF0F  F00C         	goto	u8631
  3077  00181A  EF11  F00C         	goto	u8630
  3078  00181E                     u8631:
  3079  00181E  EF28  F00C         	goto	l8362
  3080  001822                     u8630:
  3081  001822  C024  F019         	movff	___flmul@prod,??___flmul
  3082  001826  C025  F01A         	movff	___flmul@prod+1,??___flmul+1
  3083  00182A  C026  F01B         	movff	___flmul@prod+2,??___flmul+2
  3084  00182E  C027  F01C         	movff	___flmul@prod+3,??___flmul+3
  3085  001832  341C               	rlcf	(??___flmul+3)^0,w,c
  3086  001834  321C               	rrcf	(??___flmul+3)^0,f,c
  3087  001836  321B               	rrcf	(??___flmul+2)^0,f,c
  3088  001838  321A               	rrcf	(??___flmul+1)^0,f,c
  3089  00183A  3219               	rrcf	??___flmul^0,f,c
  3090  00183C  C019  F024         	movff	??___flmul,___flmul@prod
  3091  001840  C01A  F025         	movff	??___flmul+1,___flmul@prod+1
  3092  001844  C01B  F026         	movff	??___flmul+2,___flmul@prod+2
  3093  001848  C01C  F027         	movff	??___flmul+3,___flmul@prod+3
  3094  00184C  4A28               	infsnz	___flmul@temp^0,f,c
  3095  00184E  2A29               	incf	(___flmul@temp+1)^0,f,c
  3096  001850                     l8362:
  3097  001850  BE29               	btfsc	(___flmul@temp+1)^0,7,c
  3098  001852  EF33  F00C         	goto	u8641
  3099  001856  5029               	movf	(___flmul@temp+1)^0,w,c
  3100  001858  E108               	bnz	u8640
  3101  00185A  2828               	incf	___flmul@temp^0,w,c
  3102  00185C  A0D8               	btfss	status,0,c
  3103  00185E  EF33  F00C         	goto	u8641
  3104  001862  EF35  F00C         	goto	u8640
  3105  001866                     u8641:
  3106  001866  EF3F  F00C         	goto	l8366
  3107  00186A                     u8640:
  3108  00186A  0E00               	movlw	0
  3109  00186C  6E24               	movwf	___flmul@prod^0,c
  3110  00186E  0E00               	movlw	0
  3111  001870  6E25               	movwf	(___flmul@prod+1)^0,c
  3112  001872  0E80               	movlw	128
  3113  001874  6E26               	movwf	(___flmul@prod+2)^0,c
  3114  001876  0E7F               	movlw	127
  3115  001878  6E27               	movwf	(___flmul@prod+3)^0,c
  3116  00187A  EF6D  F00C         	goto	l8378
  3117  00187E                     l8366:
  3118  00187E  BE29               	btfsc	(___flmul@temp+1)^0,7,c
  3119  001880  EF4C  F00C         	goto	u8650
  3120  001884  5029               	movf	(___flmul@temp+1)^0,w,c
  3121  001886  E106               	bnz	u8651
  3122  001888  0428               	decf	___flmul@temp^0,w,c
  3123  00188A  B0D8               	btfsc	status,0,c
  3124  00188C  EF4A  F00C         	goto	u8651
  3125  001890  EF4C  F00C         	goto	u8650
  3126  001894                     u8651:
  3127  001894  EF58  F00C         	goto	l2281
  3128  001898                     u8650:
  3129  001898  0E00               	movlw	0
  3130  00189A  6E24               	movwf	___flmul@prod^0,c
  3131  00189C  0E00               	movlw	0
  3132  00189E  6E25               	movwf	(___flmul@prod+1)^0,c
  3133  0018A0  0E00               	movlw	0
  3134  0018A2  6E26               	movwf	(___flmul@prod+2)^0,c
  3135  0018A4  0E00               	movlw	0
  3136  0018A6  6E27               	movwf	(___flmul@prod+3)^0,c
  3137  0018A8  0E00               	movlw	0
  3138  0018AA  6E1D               	movwf	___flmul@sign^0,c
  3139  0018AC  EF6D  F00C         	goto	l8378
  3140  0018B0                     l2281:
  3141  0018B0  C028  F023         	movff	___flmul@temp,___flmul@bexp
  3142  0018B4  0EFF               	movlw	255
  3143  0018B6  1624               	andwf	___flmul@prod^0,f,c
  3144  0018B8  0EFF               	movlw	255
  3145  0018BA  1625               	andwf	(___flmul@prod+1)^0,f,c
  3146  0018BC  0E7F               	movlw	127
  3147  0018BE  1626               	andwf	(___flmul@prod+2)^0,f,c
  3148  0018C0  0E00               	movlw	0
  3149  0018C2  1627               	andwf	(___flmul@prod+3)^0,f,c
  3150  0018C4  A023               	btfss	___flmul@bexp^0,0,c
  3151  0018C6  EF67  F00C         	goto	u8661
  3152  0018CA  EF69  F00C         	goto	u8660
  3153  0018CE                     u8661:
  3154  0018CE  EF6A  F00C         	goto	l8376
  3155  0018D2                     u8660:
  3156  0018D2  8E26               	bsf	(___flmul@prod+2)^0,7,c
  3157  0018D4                     l8376:
  3158  0018D4  90D8               	bcf	status,0,c
  3159  0018D6  3023               	rrcf	___flmul@bexp^0,w,c
  3160  0018D8  6E27               	movwf	(___flmul@prod+3)^0,c
  3161  0018DA                     l8378:
  3162  0018DA  501D               	movf	___flmul@sign^0,w,c
  3163  0018DC  1227               	iorwf	(___flmul@prod+3)^0,f,c
  3164  0018DE  C024  F011         	movff	___flmul@prod,?___flmul
  3165  0018E2  C025  F012         	movff	___flmul@prod+1,?___flmul+1
  3166  0018E6  C026  F013         	movff	___flmul@prod+2,?___flmul+2
  3167  0018EA  C027  F014         	movff	___flmul@prod+3,?___flmul+3
  3168  0018EE                     l2268:
  3169  0018EE  0012               	return		;funcret
  3170  0018F0                     __end_of___flmul:
  3171                           	callstack 0
  3172                           
  3173 ;; *************** function ___fladd *****************
  3174 ;; Defined at:
  3175 ;;		line 10 in file "C:\Program Files\Microchip\xc8\v2.30\pic\sources\c99\common\sprcadd.c"
  3176 ;; Parameters:    Size  Location     Type
  3177 ;;  b               4   41[COMRAM] unsigned char 
  3178 ;;  a               4   45[COMRAM] unsigned char 
  3179 ;; Auto vars:     Size  Location     Type
  3180 ;;  grs             1   56[COMRAM] unsigned char 
  3181 ;;  bexp            1   55[COMRAM] unsigned char 
  3182 ;;  aexp            1   54[COMRAM] unsigned char 
  3183 ;;  signs           1   53[COMRAM] unsigned char 
  3184 ;; Return value:  Size  Location     Type
  3185 ;;                  4   41[COMRAM] unsigned char 
  3186 ;; Registers used:
  3187 ;;		wreg, status,2, status,0
  3188 ;; Tracked objects:
  3189 ;;		On entry : 0/0
  3190 ;;		On exit  : 0/0
  3191 ;;		Unchanged: 0/0
  3192 ;; Data sizes:     COMRAM   BANK0   BANK1   BANK2   BANK3   BANK4   BANK5   BANK6   BANK7   BANK8   BANK9  BANK10  BANK1
      +1  BANK12  BANK13  BANK14  BANK15
  3193 ;;      Params:         8       0       0       0       0       0       0       0       0       0       0       0       
      +0       0       0       0       0
  3194 ;;      Locals:         4       0       0       0       0       0       0       0       0       0       0       0       
      +0       0       0       0       0
  3195 ;;      Temps:          4       0       0       0       0       0       0       0       0       0       0       0       
      +0       0       0       0       0
  3196 ;;      Totals:        16       0       0       0       0       0       0       0       0       0       0       0       
      +0       0       0       0       0
  3197 ;;Total ram usage:       16 bytes
  3198 ;; Hardware stack levels used:    1
  3199 ;; Hardware stack levels required when called:    2
  3200 ;; This function calls:
  3201 ;;		Nothing
  3202 ;; This function is called by:
  3203 ;;		_Servo_SetAngle
  3204 ;;		_I2C_Master_Mode_Clock_Configurations
  3205 ;;		_EUSART_Baud_Rate_Calculation
  3206 ;; This function uses a non-reentrant model
  3207 ;;
  3208                           
  3209                           	psect	text13
  3210  001006                     __ptext13:
  3211                           	callstack 0
  3212  001006                     ___fladd:
  3213                           	callstack 24
  3214  001006  502D               	movf	(___fladd@b+3)^0,w,c
  3215  001008  0B80               	andlw	128
  3216  00100A  6E36               	movwf	___fladd@signs^0,c
  3217  00100C  502D               	movf	(___fladd@b+3)^0,w,c
  3218  00100E  242D               	addwf	(___fladd@b+3)^0,w,c
  3219  001010  6E38               	movwf	___fladd@bexp^0,c
  3220  001012  AE2C               	btfss	(___fladd@b+2)^0,7,c
  3221  001014  EF0E  F008         	goto	u7461
  3222  001018  EF10  F008         	goto	u7460
  3223  00101C                     u7461:
  3224  00101C  EF11  F008         	goto	l7686
  3225  001020                     u7460:
  3226  001020  8038               	bsf	___fladd@bexp^0,0,c
  3227  001022                     l7686:
  3228  001022  5038               	movf	___fladd@bexp^0,w,c
  3229  001024  B4D8               	btfsc	status,2,c
  3230  001026  EF17  F008         	goto	u7471
  3231  00102A  EF19  F008         	goto	u7470
  3232  00102E                     u7471:
  3233  00102E  EF2E  F008         	goto	l7696
  3234  001032                     u7470:
  3235  001032  2838               	incf	___fladd@bexp^0,w,c
  3236  001034  A4D8               	btfss	status,2,c
  3237  001036  EF1F  F008         	goto	u7481
  3238  00103A  EF21  F008         	goto	u7480
  3239  00103E                     u7481:
  3240  00103E  EF29  F008         	goto	l7692
  3241  001042                     u7480:
  3242  001042  0E00               	movlw	0
  3243  001044  6E2A               	movwf	___fladd@b^0,c
  3244  001046  0E00               	movlw	0
  3245  001048  6E2B               	movwf	(___fladd@b+1)^0,c
  3246  00104A  0E00               	movlw	0
  3247  00104C  6E2C               	movwf	(___fladd@b+2)^0,c
  3248  00104E  0E00               	movlw	0
  3249  001050  6E2D               	movwf	(___fladd@b+3)^0,c
  3250  001052                     l7692:
  3251  001052  8E2C               	bsf	(___fladd@b+2)^0,7,c
  3252  001054  0E00               	movlw	0
  3253  001056  6E2D               	movwf	(___fladd@b+3)^0,c
  3254  001058  EF36  F008         	goto	l7698
  3255  00105C                     l7696:
  3256  00105C  0E00               	movlw	0
  3257  00105E  6E2A               	movwf	___fladd@b^0,c
  3258  001060  0E00               	movlw	0
  3259  001062  6E2B               	movwf	(___fladd@b+1)^0,c
  3260  001064  0E00               	movlw	0
  3261  001066  6E2C               	movwf	(___fladd@b+2)^0,c
  3262  001068  0E00               	movlw	0
  3263  00106A  6E2D               	movwf	(___fladd@b+3)^0,c
  3264  00106C                     l7698:
  3265  00106C  5031               	movf	(___fladd@a+3)^0,w,c
  3266  00106E  0B80               	andlw	128
  3267  001070  6E37               	movwf	___fladd@aexp^0,c
  3268  001072  5036               	movf	___fladd@signs^0,w,c
  3269  001074  1837               	xorwf	___fladd@aexp^0,w,c
  3270  001076  B4D8               	btfsc	status,2,c
  3271  001078  EF40  F008         	goto	u7491
  3272  00107C  EF42  F008         	goto	u7490
  3273  001080                     u7491:
  3274  001080  EF43  F008         	goto	l7704
  3275  001084                     u7490:
  3276  001084  8C36               	bsf	___fladd@signs^0,6,c
  3277  001086                     l7704:
  3278  001086  5031               	movf	(___fladd@a+3)^0,w,c
  3279  001088  2431               	addwf	(___fladd@a+3)^0,w,c
  3280  00108A  6E37               	movwf	___fladd@aexp^0,c
  3281  00108C  AE30               	btfss	(___fladd@a+2)^0,7,c
  3282  00108E  EF4B  F008         	goto	u7501
  3283  001092  EF4D  F008         	goto	u7500
  3284  001096                     u7501:
  3285  001096  EF4E  F008         	goto	l7710
  3286  00109A                     u7500:
  3287  00109A  8037               	bsf	___fladd@aexp^0,0,c
  3288  00109C                     l7710:
  3289  00109C  5037               	movf	___fladd@aexp^0,w,c
  3290  00109E  B4D8               	btfsc	status,2,c
  3291  0010A0  EF54  F008         	goto	u7511
  3292  0010A4  EF56  F008         	goto	u7510
  3293  0010A8                     u7511:
  3294  0010A8  EF6B  F008         	goto	l7720
  3295  0010AC                     u7510:
  3296  0010AC  2837               	incf	___fladd@aexp^0,w,c
  3297  0010AE  A4D8               	btfss	status,2,c
  3298  0010B0  EF5C  F008         	goto	u7521
  3299  0010B4  EF5E  F008         	goto	u7520
  3300  0010B8                     u7521:
  3301  0010B8  EF66  F008         	goto	l7716
  3302  0010BC                     u7520:
  3303  0010BC  0E00               	movlw	0
  3304  0010BE  6E2E               	movwf	___fladd@a^0,c
  3305  0010C0  0E00               	movlw	0
  3306  0010C2  6E2F               	movwf	(___fladd@a+1)^0,c
  3307  0010C4  0E00               	movlw	0
  3308  0010C6  6E30               	movwf	(___fladd@a+2)^0,c
  3309  0010C8  0E00               	movlw	0
  3310  0010CA  6E31               	movwf	(___fladd@a+3)^0,c
  3311  0010CC                     l7716:
  3312  0010CC  8E30               	bsf	(___fladd@a+2)^0,7,c
  3313  0010CE  0E00               	movlw	0
  3314  0010D0  6E31               	movwf	(___fladd@a+3)^0,c
  3315  0010D2  EF73  F008         	goto	l7722
  3316  0010D6                     l7720:
  3317  0010D6  0E00               	movlw	0
  3318  0010D8  6E2E               	movwf	___fladd@a^0,c
  3319  0010DA  0E00               	movlw	0
  3320  0010DC  6E2F               	movwf	(___fladd@a+1)^0,c
  3321  0010DE  0E00               	movlw	0
  3322  0010E0  6E30               	movwf	(___fladd@a+2)^0,c
  3323  0010E2  0E00               	movlw	0
  3324  0010E4  6E31               	movwf	(___fladd@a+3)^0,c
  3325  0010E6                     l7722:
  3326  0010E6  5038               	movf	___fladd@bexp^0,w,c
  3327  0010E8  5C37               	subwf	___fladd@aexp^0,w,c
  3328  0010EA  B0D8               	btfsc	status,0,c
  3329  0010EC  EF7A  F008         	goto	u7531
  3330  0010F0  EF7C  F008         	goto	u7530
  3331  0010F4                     u7531:
  3332  0010F4  EFA3  F008         	goto	l7758
  3333  0010F8                     u7530:
  3334  0010F8  AC36               	btfss	___fladd@signs^0,6,c
  3335  0010FA  EF81  F008         	goto	u7541
  3336  0010FE  EF83  F008         	goto	u7540
  3337  001102                     u7541:
  3338  001102  EF85  F008         	goto	l7728
  3339  001106                     u7540:
  3340  001106  0E80               	movlw	128
  3341  001108  1A36               	xorwf	___fladd@signs^0,f,c
  3342  00110A                     l7728:
  3343  00110A  C038  F039         	movff	___fladd@bexp,___fladd@grs
  3344  00110E  C037  F038         	movff	___fladd@aexp,___fladd@bexp
  3345  001112  C039  F037         	movff	___fladd@grs,___fladd@aexp
  3346  001116  C02A  F039         	movff	___fladd@b,___fladd@grs
  3347  00111A  C02E  F02A         	movff	___fladd@a,___fladd@b
  3348  00111E  C039  F02E         	movff	___fladd@grs,___fladd@a
  3349  001122  C02B  F039         	movff	___fladd@b+1,___fladd@grs
  3350  001126  C02F  F02B         	movff	___fladd@a+1,___fladd@b+1
  3351  00112A  C039  F02F         	movff	___fladd@grs,___fladd@a+1
  3352  00112E  C02C  F039         	movff	___fladd@b+2,___fladd@grs
  3353  001132  C030  F02C         	movff	___fladd@a+2,___fladd@b+2
  3354  001136  C039  F030         	movff	___fladd@grs,___fladd@a+2
  3355  00113A  C02D  F039         	movff	___fladd@b+3,___fladd@grs
  3356  00113E  C031  F02D         	movff	___fladd@a+3,___fladd@b+3
  3357  001142  C039  F031         	movff	___fladd@grs,___fladd@a+3
  3358  001146                     l7758:
  3359  001146  0E00               	movlw	0
  3360  001148  6E39               	movwf	___fladd@grs^0,c
  3361  00114A  5038               	movf	___fladd@bexp^0,w,c
  3362  00114C  C037  F032         	movff	___fladd@aexp,??___fladd
  3363  001150  6A33               	clrf	(??___fladd+1)^0,c
  3364  001152  5E32               	subwf	??___fladd^0,f,c
  3365  001154  0E00               	movlw	0
  3366  001156  5A33               	subwfb	(??___fladd+1)^0,f,c
  3367  001158  BE33               	btfsc	(??___fladd+1)^0,7,c
  3368  00115A  EFB8  F008         	goto	u7551
  3369  00115E  5033               	movf	(??___fladd+1)^0,w,c
  3370  001160  E109               	bnz	u7550
  3371  001162  0E1A               	movlw	26
  3372  001164  5C32               	subwf	??___fladd^0,w,c
  3373  001166  A0D8               	btfss	status,0,c
  3374  001168  EFB8  F008         	goto	u7551
  3375  00116C  EFBA  F008         	goto	u7550
  3376  001170                     u7551:
  3377  001170  EFF1  F008         	goto	l2179
  3378  001174                     u7550:
  3379  001174  502A               	movf	___fladd@b^0,w,c
  3380  001176  102B               	iorwf	(___fladd@b+1)^0,w,c
  3381  001178  102C               	iorwf	(___fladd@b+2)^0,w,c
  3382  00117A  102D               	iorwf	(___fladd@b+3)^0,w,c
  3383  00117C  A4D8               	btfss	status,2,c
  3384  00117E  EFC3  F008         	goto	u7561
  3385  001182  EFC6  F008         	goto	u7560
  3386  001186                     u7561:
  3387  001186  0E01               	movlw	1
  3388  001188  EFC7  F008         	goto	u7570
  3389  00118C                     u7560:
  3390  00118C  0E00               	movlw	0
  3391  00118E                     u7570:
  3392  00118E  6E39               	movwf	___fladd@grs^0,c
  3393  001190  0E00               	movlw	0
  3394  001192  6E2A               	movwf	___fladd@b^0,c
  3395  001194  0E00               	movlw	0
  3396  001196  6E2B               	movwf	(___fladd@b+1)^0,c
  3397  001198  0E00               	movlw	0
  3398  00119A  6E2C               	movwf	(___fladd@b+2)^0,c
  3399  00119C  0E00               	movlw	0
  3400  00119E  6E2D               	movwf	(___fladd@b+3)^0,c
  3401  0011A0  C037  F038         	movff	___fladd@aexp,___fladd@bexp
  3402  0011A4  EFFA  F008         	goto	l2178
  3403  0011A8                     l2180:
  3404  0011A8  A039               	btfss	___fladd@grs^0,0,c
  3405  0011AA  EFD9  F008         	goto	u7581
  3406  0011AE  EFDB  F008         	goto	u7580
  3407  0011B2                     u7581:
  3408  0011B2  EFE1  F008         	goto	l7770
  3409  0011B6                     u7580:
  3410  0011B6  90D8               	bcf	status,0,c
  3411  0011B8  3039               	rrcf	___fladd@grs^0,w,c
  3412  0011BA  0901               	iorlw	1
  3413  0011BC  6E39               	movwf	___fladd@grs^0,c
  3414  0011BE  EFE3  F008         	goto	l7772
  3415  0011C2                     l7770:
  3416  0011C2  90D8               	bcf	status,0,c
  3417  0011C4  3239               	rrcf	___fladd@grs^0,f,c
  3418  0011C6                     l7772:
  3419  0011C6  A02A               	btfss	___fladd@b^0,0,c
  3420  0011C8  EFE8  F008         	goto	u7591
  3421  0011CC  EFEA  F008         	goto	u7590
  3422  0011D0                     u7591:
  3423  0011D0  EFEB  F008         	goto	l7776
  3424  0011D4                     u7590:
  3425  0011D4  8E39               	bsf	___fladd@grs^0,7,c
  3426  0011D6                     l7776:
  3427  0011D6  342D               	rlcf	(___fladd@b+3)^0,w,c
  3428  0011D8  322D               	rrcf	(___fladd@b+3)^0,f,c
  3429  0011DA  322C               	rrcf	(___fladd@b+2)^0,f,c
  3430  0011DC  322B               	rrcf	(___fladd@b+1)^0,f,c
  3431  0011DE  322A               	rrcf	___fladd@b^0,f,c
  3432  0011E0  2A38               	incf	___fladd@bexp^0,f,c
  3433  0011E2                     l2179:
  3434  0011E2  5037               	movf	___fladd@aexp^0,w,c
  3435  0011E4  5C38               	subwf	___fladd@bexp^0,w,c
  3436  0011E6  A0D8               	btfss	status,0,c
  3437  0011E8  EFF8  F008         	goto	u7601
  3438  0011EC  EFFA  F008         	goto	u7600
  3439  0011F0                     u7601:
  3440  0011F0  EFD4  F008         	goto	l2180
  3441  0011F4                     u7600:
  3442  0011F4                     l2178:
  3443  0011F4  BC36               	btfsc	___fladd@signs^0,6,c
  3444  0011F6  EFFF  F008         	goto	u7611
  3445  0011FA  EF01  F009         	goto	u7610
  3446  0011FE                     u7611:
  3447  0011FE  EF41  F009         	goto	l7804
  3448  001202                     u7610:
  3449  001202  5038               	movf	___fladd@bexp^0,w,c
  3450  001204  A4D8               	btfss	status,2,c
  3451  001206  EF07  F009         	goto	u7621
  3452  00120A  EF09  F009         	goto	u7620
  3453  00120E                     u7621:
  3454  00120E  EF13  F009         	goto	l7786
  3455  001212                     u7620:
  3456  001212  0E00               	movlw	0
  3457  001214  6E2A               	movwf	?___fladd^0,c
  3458  001216  0E00               	movlw	0
  3459  001218  6E2B               	movwf	(?___fladd+1)^0,c
  3460  00121A  0E00               	movlw	0
  3461  00121C  6E2C               	movwf	(?___fladd+2)^0,c
  3462  00121E  0E00               	movlw	0
  3463  001220  6E2D               	movwf	(?___fladd+3)^0,c
  3464  001222  EF62  F00A         	goto	l2187
  3465  001226                     l7786:
  3466  001226  502E               	movf	___fladd@a^0,w,c
  3467  001228  262A               	addwf	___fladd@b^0,f,c
  3468  00122A  502F               	movf	(___fladd@a+1)^0,w,c
  3469  00122C  222B               	addwfc	(___fladd@b+1)^0,f,c
  3470  00122E  5030               	movf	(___fladd@a+2)^0,w,c
  3471  001230  222C               	addwfc	(___fladd@b+2)^0,f,c
  3472  001232  5031               	movf	(___fladd@a+3)^0,w,c
  3473  001234  222D               	addwfc	(___fladd@b+3)^0,f,c
  3474  001236  A02D               	btfss	(___fladd@b+3)^0,0,c
  3475  001238  EF20  F009         	goto	u7631
  3476  00123C  EF22  F009         	goto	u7630
  3477  001240                     u7631:
  3478  001240  EFCE  F009         	goto	l7840
  3479  001244                     u7630:
  3480  001244  A039               	btfss	___fladd@grs^0,0,c
  3481  001246  EF27  F009         	goto	u7641
  3482  00124A  EF29  F009         	goto	u7640
  3483  00124E                     u7641:
  3484  00124E  EF2F  F009         	goto	l7794
  3485  001252                     u7640:
  3486  001252  90D8               	bcf	status,0,c
  3487  001254  3039               	rrcf	___fladd@grs^0,w,c
  3488  001256  0901               	iorlw	1
  3489  001258  6E39               	movwf	___fladd@grs^0,c
  3490  00125A  EF31  F009         	goto	l7796
  3491  00125E                     l7794:
  3492  00125E  90D8               	bcf	status,0,c
  3493  001260  3239               	rrcf	___fladd@grs^0,f,c
  3494  001262                     l7796:
  3495  001262  A02A               	btfss	___fladd@b^0,0,c
  3496  001264  EF36  F009         	goto	u7651
  3497  001268  EF38  F009         	goto	u7650
  3498  00126C                     u7651:
  3499  00126C  EF39  F009         	goto	l7800
  3500  001270                     u7650:
  3501  001270  8E39               	bsf	___fladd@grs^0,7,c
  3502  001272                     l7800:
  3503  001272  342D               	rlcf	(___fladd@b+3)^0,w,c
  3504  001274  322D               	rrcf	(___fladd@b+3)^0,f,c
  3505  001276  322C               	rrcf	(___fladd@b+2)^0,f,c
  3506  001278  322B               	rrcf	(___fladd@b+1)^0,f,c
  3507  00127A  322A               	rrcf	___fladd@b^0,f,c
  3508  00127C  2A38               	incf	___fladd@bexp^0,f,c
  3509  00127E  EFCE  F009         	goto	l7840
  3510  001282                     l7804:
  3511  001282  502E               	movf	___fladd@a^0,w,c
  3512  001284  5C2A               	subwf	___fladd@b^0,w,c
  3513  001286  502F               	movf	(___fladd@a+1)^0,w,c
  3514  001288  582B               	subwfb	(___fladd@b+1)^0,w,c
  3515  00128A  5030               	movf	(___fladd@a+2)^0,w,c
  3516  00128C  582C               	subwfb	(___fladd@b+2)^0,w,c
  3517  00128E  502D               	movf	(___fladd@b+3)^0,w,c
  3518  001290  0A80               	xorlw	128
  3519  001292  6E32               	movwf	??___fladd^0,c
  3520  001294  5031               	movf	(___fladd@a+3)^0,w,c
  3521  001296  0A80               	xorlw	128
  3522  001298  5832               	subwfb	??___fladd^0,w,c
  3523  00129A  B0D8               	btfsc	status,0,c
  3524  00129C  EF52  F009         	goto	u7661
  3525  0012A0  EF54  F009         	goto	u7660
  3526  0012A4                     u7661:
  3527  0012A4  EF7F  F009         	goto	l7814
  3528  0012A8                     u7660:
  3529  0012A8  502A               	movf	___fladd@b^0,w,c
  3530  0012AA  5C2E               	subwf	___fladd@a^0,w,c
  3531  0012AC  6E32               	movwf	??___fladd^0,c
  3532  0012AE  502B               	movf	(___fladd@b+1)^0,w,c
  3533  0012B0  582F               	subwfb	(___fladd@a+1)^0,w,c
  3534  0012B2  6E33               	movwf	(??___fladd+1)^0,c
  3535  0012B4  502C               	movf	(___fladd@b+2)^0,w,c
  3536  0012B6  5830               	subwfb	(___fladd@a+2)^0,w,c
  3537  0012B8  6E34               	movwf	(??___fladd+2)^0,c
  3538  0012BA  502D               	movf	(___fladd@b+3)^0,w,c
  3539  0012BC  5831               	subwfb	(___fladd@a+3)^0,w,c
  3540  0012BE  6E35               	movwf	(??___fladd+3)^0,c
  3541  0012C0  0EFF               	movlw	255
  3542  0012C2  2432               	addwf	??___fladd^0,w,c
  3543  0012C4  6E2A               	movwf	___fladd@b^0,c
  3544  0012C6  0EFF               	movlw	255
  3545  0012C8  2033               	addwfc	(??___fladd+1)^0,w,c
  3546  0012CA  6E2B               	movwf	(___fladd@b+1)^0,c
  3547  0012CC  0EFF               	movlw	255
  3548  0012CE  2034               	addwfc	(??___fladd+2)^0,w,c
  3549  0012D0  6E2C               	movwf	(___fladd@b+2)^0,c
  3550  0012D2  0EFF               	movlw	255
  3551  0012D4  2035               	addwfc	(??___fladd+3)^0,w,c
  3552  0012D6  6E2D               	movwf	(___fladd@b+3)^0,c
  3553  0012D8  0E80               	movlw	128
  3554  0012DA  1A36               	xorwf	___fladd@signs^0,f,c
  3555  0012DC  6C39               	negf	___fladd@grs^0,c
  3556  0012DE  5039               	movf	___fladd@grs^0,w,c
  3557  0012E0  A4D8               	btfss	status,2,c
  3558  0012E2  EF75  F009         	goto	u7671
  3559  0012E6  EF77  F009         	goto	u7670
  3560  0012EA                     u7671:
  3561  0012EA  EF87  F009         	goto	l2195
  3562  0012EE                     u7670:
  3563  0012EE  0E01               	movlw	1
  3564  0012F0  262A               	addwf	___fladd@b^0,f,c
  3565  0012F2  0E00               	movlw	0
  3566  0012F4  222B               	addwfc	(___fladd@b+1)^0,f,c
  3567  0012F6  222C               	addwfc	(___fladd@b+2)^0,f,c
  3568  0012F8  222D               	addwfc	(___fladd@b+3)^0,f,c
  3569  0012FA  EF87  F009         	goto	l2195
  3570  0012FE                     l7814:
  3571  0012FE  502E               	movf	___fladd@a^0,w,c
  3572  001300  5E2A               	subwf	___fladd@b^0,f,c
  3573  001302  502F               	movf	(___fladd@a+1)^0,w,c
  3574  001304  5A2B               	subwfb	(___fladd@b+1)^0,f,c
  3575  001306  5030               	movf	(___fladd@a+2)^0,w,c
  3576  001308  5A2C               	subwfb	(___fladd@b+2)^0,f,c
  3577  00130A  5031               	movf	(___fladd@a+3)^0,w,c
  3578  00130C  5A2D               	subwfb	(___fladd@b+3)^0,f,c
  3579  00130E                     l2195:
  3580  00130E  502A               	movf	___fladd@b^0,w,c
  3581  001310  102B               	iorwf	(___fladd@b+1)^0,w,c
  3582  001312  102C               	iorwf	(___fladd@b+2)^0,w,c
  3583  001314  102D               	iorwf	(___fladd@b+3)^0,w,c
  3584  001316  A4D8               	btfss	status,2,c
  3585  001318  EF90  F009         	goto	u7681
  3586  00131C  EF92  F009         	goto	u7680
  3587  001320                     u7681:
  3588  001320  EFC7  F009         	goto	l7838
  3589  001324                     u7680:
  3590  001324  5039               	movf	___fladd@grs^0,w,c
  3591  001326  A4D8               	btfss	status,2,c
  3592  001328  EF98  F009         	goto	u7691
  3593  00132C  EF9A  F009         	goto	u7690
  3594  001330                     u7691:
  3595  001330  EFC7  F009         	goto	l7838
  3596  001334                     u7690:
  3597  001334  0E00               	movlw	0
  3598  001336  6E2A               	movwf	?___fladd^0,c
  3599  001338  0E00               	movlw	0
  3600  00133A  6E2B               	movwf	(?___fladd+1)^0,c
  3601  00133C  0E00               	movlw	0
  3602  00133E  6E2C               	movwf	(?___fladd+2)^0,c
  3603  001340  0E00               	movlw	0
  3604  001342  6E2D               	movwf	(?___fladd+3)^0,c
  3605  001344  EF62  F00A         	goto	l2187
  3606  001348                     l7822:
  3607  001348  90D8               	bcf	status,0,c
  3608  00134A  362A               	rlcf	___fladd@b^0,f,c
  3609  00134C  362B               	rlcf	(___fladd@b+1)^0,f,c
  3610  00134E  362C               	rlcf	(___fladd@b+2)^0,f,c
  3611  001350  362D               	rlcf	(___fladd@b+3)^0,f,c
  3612  001352  AE39               	btfss	___fladd@grs^0,7,c
  3613  001354  EFAE  F009         	goto	u7701
  3614  001358  EFB0  F009         	goto	u7700
  3615  00135C                     u7701:
  3616  00135C  EFB1  F009         	goto	l7828
  3617  001360                     u7700:
  3618  001360  802A               	bsf	___fladd@b^0,0,c
  3619  001362                     l7828:
  3620  001362  A039               	btfss	___fladd@grs^0,0,c
  3621  001364  EFB6  F009         	goto	u7711
  3622  001368  EFB8  F009         	goto	u7710
  3623  00136C                     u7711:
  3624  00136C  EFBC  F009         	goto	l7832
  3625  001370                     u7710:
  3626  001370  80D8               	bsf	status,0,c
  3627  001372  3639               	rlcf	___fladd@grs^0,f,c
  3628  001374  EFBE  F009         	goto	l7834
  3629  001378                     l7832:
  3630  001378  90D8               	bcf	status,0,c
  3631  00137A  3639               	rlcf	___fladd@grs^0,f,c
  3632  00137C                     l7834:
  3633  00137C  5038               	movf	___fladd@bexp^0,w,c
  3634  00137E  B4D8               	btfsc	status,2,c
  3635  001380  EFC4  F009         	goto	u7721
  3636  001384  EFC6  F009         	goto	u7720
  3637  001388                     u7721:
  3638  001388  EFC7  F009         	goto	l7838
  3639  00138C                     u7720:
  3640  00138C  0638               	decf	___fladd@bexp^0,f,c
  3641  00138E                     l7838:
  3642  00138E  AE2C               	btfss	(___fladd@b+2)^0,7,c
  3643  001390  EFCC  F009         	goto	u7731
  3644  001394  EFCE  F009         	goto	u7730
  3645  001398                     u7731:
  3646  001398  EFA4  F009         	goto	l7822
  3647  00139C                     u7730:
  3648  00139C                     l7840:
  3649  00139C  0E00               	movlw	0
  3650  00139E  6E37               	movwf	___fladd@aexp^0,c
  3651  0013A0  AE39               	btfss	___fladd@grs^0,7,c
  3652  0013A2  EFD5  F009         	goto	u7741
  3653  0013A6  EFD7  F009         	goto	u7740
  3654  0013AA                     u7741:
  3655  0013AA  EFEF  F009         	goto	l2204
  3656  0013AE                     u7740:
  3657  0013AE  C039  F032         	movff	___fladd@grs,??___fladd
  3658  0013B2  0E7F               	movlw	127
  3659  0013B4  1632               	andwf	??___fladd^0,f,c
  3660  0013B6  B4D8               	btfsc	status,2,c
  3661  0013B8  EFE0  F009         	goto	u7751
  3662  0013BC  EFE2  F009         	goto	u7750
  3663  0013C0                     u7751:
  3664  0013C0  EFE6  F009         	goto	l2205
  3665  0013C4                     u7750:
  3666  0013C4                     l7846:
  3667  0013C4  0E01               	movlw	1
  3668  0013C6  6E37               	movwf	___fladd@aexp^0,c
  3669  0013C8  EFEF  F009         	goto	l2204
  3670  0013CC                     l2205:
  3671  0013CC  A02A               	btfss	___fladd@b^0,0,c
  3672  0013CE  EFEB  F009         	goto	u7761
  3673  0013D2  EFED  F009         	goto	u7760
  3674  0013D6                     u7761:
  3675  0013D6  EFEF  F009         	goto	l2204
  3676  0013DA                     u7760:
  3677  0013DA  EFE2  F009         	goto	l7846
  3678  0013DE                     l2204:
  3679  0013DE  5037               	movf	___fladd@aexp^0,w,c
  3680  0013E0  B4D8               	btfsc	status,2,c
  3681  0013E2  EFF5  F009         	goto	u7771
  3682  0013E6  EFF7  F009         	goto	u7770
  3683  0013EA                     u7771:
  3684  0013EA  EF22  F00A         	goto	l7858
  3685  0013EE                     u7770:
  3686  0013EE  0E01               	movlw	1
  3687  0013F0  262A               	addwf	___fladd@b^0,f,c
  3688  0013F2  0E00               	movlw	0
  3689  0013F4  222B               	addwfc	(___fladd@b+1)^0,f,c
  3690  0013F6  222C               	addwfc	(___fladd@b+2)^0,f,c
  3691  0013F8  222D               	addwfc	(___fladd@b+3)^0,f,c
  3692  0013FA  A02D               	btfss	(___fladd@b+3)^0,0,c
  3693  0013FC  EF02  F00A         	goto	u7781
  3694  001400  EF04  F00A         	goto	u7780
  3695  001404                     u7781:
  3696  001404  EF22  F00A         	goto	l7858
  3697  001408                     u7780:
  3698  001408  C02A  F032         	movff	___fladd@b,??___fladd
  3699  00140C  C02B  F033         	movff	___fladd@b+1,??___fladd+1
  3700  001410  C02C  F034         	movff	___fladd@b+2,??___fladd+2
  3701  001414  C02D  F035         	movff	___fladd@b+3,??___fladd+3
  3702  001418  3435               	rlcf	(??___fladd+3)^0,w,c
  3703  00141A  3235               	rrcf	(??___fladd+3)^0,f,c
  3704  00141C  3234               	rrcf	(??___fladd+2)^0,f,c
  3705  00141E  3233               	rrcf	(??___fladd+1)^0,f,c
  3706  001420  3232               	rrcf	??___fladd^0,f,c
  3707  001422  C032  F02A         	movff	??___fladd,___fladd@b
  3708  001426  C033  F02B         	movff	??___fladd+1,___fladd@b+1
  3709  00142A  C034  F02C         	movff	??___fladd+2,___fladd@b+2
  3710  00142E  C035  F02D         	movff	??___fladd+3,___fladd@b+3
  3711  001432  2838               	incf	___fladd@bexp^0,w,c
  3712  001434  B4D8               	btfsc	status,2,c
  3713  001436  EF1F  F00A         	goto	u7791
  3714  00143A  EF21  F00A         	goto	u7790
  3715  00143E                     u7791:
  3716  00143E  EF22  F00A         	goto	l7858
  3717  001442                     u7790:
  3718  001442  2A38               	incf	___fladd@bexp^0,f,c
  3719  001444                     l7858:
  3720  001444  2838               	incf	___fladd@bexp^0,w,c
  3721  001446  B4D8               	btfsc	status,2,c
  3722  001448  EF28  F00A         	goto	u7801
  3723  00144C  EF2A  F00A         	goto	u7800
  3724  001450                     u7801:
  3725  001450  EF32  F00A         	goto	l7862
  3726  001454                     u7800:
  3727  001454  5038               	movf	___fladd@bexp^0,w,c
  3728  001456  A4D8               	btfss	status,2,c
  3729  001458  EF30  F00A         	goto	u7811
  3730  00145C  EF32  F00A         	goto	u7810
  3731  001460                     u7811:
  3732  001460  EF44  F00A         	goto	l7866
  3733  001464                     u7810:
  3734  001464                     l7862:
  3735  001464  0E00               	movlw	0
  3736  001466  6E2A               	movwf	___fladd@b^0,c
  3737  001468  0E00               	movlw	0
  3738  00146A  6E2B               	movwf	(___fladd@b+1)^0,c
  3739  00146C  0E00               	movlw	0
  3740  00146E  6E2C               	movwf	(___fladd@b+2)^0,c
  3741  001470  0E00               	movlw	0
  3742  001472  6E2D               	movwf	(___fladd@b+3)^0,c
  3743  001474  5038               	movf	___fladd@bexp^0,w,c
  3744  001476  A4D8               	btfss	status,2,c
  3745  001478  EF40  F00A         	goto	u7821
  3746  00147C  EF42  F00A         	goto	u7820
  3747  001480                     u7821:
  3748  001480  EF44  F00A         	goto	l7866
  3749  001484                     u7820:
  3750  001484  0E00               	movlw	0
  3751  001486  6E36               	movwf	___fladd@signs^0,c
  3752  001488                     l7866:
  3753  001488  A038               	btfss	___fladd@bexp^0,0,c
  3754  00148A  EF49  F00A         	goto	u7831
  3755  00148E  EF4B  F00A         	goto	u7830
  3756  001492                     u7831:
  3757  001492  EF4E  F00A         	goto	l7870
  3758  001496                     u7830:
  3759  001496  8E2C               	bsf	(___fladd@b+2)^0,7,c
  3760  001498  EF4F  F00A         	goto	l7872
  3761  00149C                     l7870:
  3762  00149C  9E2C               	bcf	(___fladd@b+2)^0,7,c
  3763  00149E                     l7872:
  3764  00149E  90D8               	bcf	status,0,c
  3765  0014A0  3038               	rrcf	___fladd@bexp^0,w,c
  3766  0014A2  6E2D               	movwf	(___fladd@b+3)^0,c
  3767  0014A4  AE36               	btfss	___fladd@signs^0,7,c
  3768  0014A6  EF57  F00A         	goto	u7841
  3769  0014AA  EF59  F00A         	goto	u7840
  3770  0014AE                     u7841:
  3771  0014AE  EF5A  F00A         	goto	l7878
  3772  0014B2                     u7840:
  3773  0014B2  8E2D               	bsf	(___fladd@b+3)^0,7,c
  3774  0014B4                     l7878:
  3775  0014B4  C02A  F02A         	movff	___fladd@b,?___fladd
  3776  0014B8  C02B  F02B         	movff	___fladd@b+1,?___fladd+1
  3777  0014BC  C02C  F02C         	movff	___fladd@b+2,?___fladd+2
  3778  0014C0  C02D  F02D         	movff	___fladd@b+3,?___fladd+3
  3779  0014C4                     l2187:
  3780  0014C4  0012               	return		;funcret
  3781  0014C6                     __end_of___fladd:
  3782                           	callstack 0
  3783                           
  3784 ;; *************** function _PCA_Write_Reg *****************
  3785 ;; Defined at:
  3786 ;;		line 52 in file "ECU/SERVO_MOTOR_I2C/ecu_servo_motor_i2c.c"
  3787 ;; Parameters:    Size  Location     Type
  3788 ;;  i2c_obj         2    8[COMRAM] PTR const struct .
  3789 ;;		 -> i2c_obj(13), 
  3790 ;;  slave_addres    1   10[COMRAM] unsigned char 
  3791 ;;  reg_address     1   11[COMRAM] unsigned char 
  3792 ;;  data            1   12[COMRAM] unsigned char 
  3793 ;; Auto vars:     Size  Location     Type
  3794 ;;  ack             1   13[COMRAM] unsigned char 
  3795 ;; Return value:  Size  Location     Type
  3796 ;;                  1    wreg      void 
  3797 ;; Registers used:
  3798 ;;		wreg, fsr2l, fsr2h, status,2, status,0, cstack
  3799 ;; Tracked objects:
  3800 ;;		On entry : 0/0
  3801 ;;		On exit  : 0/0
  3802 ;;		Unchanged: 0/0
  3803 ;; Data sizes:     COMRAM   BANK0   BANK1   BANK2   BANK3   BANK4   BANK5   BANK6   BANK7   BANK8   BANK9  BANK10  BANK1
      +1  BANK12  BANK13  BANK14  BANK15
  3804 ;;      Params:         5       0       0       0       0       0       0       0       0       0       0       0       
      +0       0       0       0       0
  3805 ;;      Locals:         1       0       0       0       0       0       0       0       0       0       0       0       
      +0       0       0       0       0
  3806 ;;      Temps:          0       0       0       0       0       0       0       0       0       0       0       0       
      +0       0       0       0       0
  3807 ;;      Totals:         6       0       0       0       0       0       0       0       0       0       0       0       
      +0       0       0       0       0
  3808 ;;Total ram usage:        6 bytes
  3809 ;; Hardware stack levels used:    1
  3810 ;; Hardware stack levels required when called:    3
  3811 ;; This function calls:
  3812 ;;		_MSSP_I2C_Master_Send_Start
  3813 ;;		_MSSP_I2C_Master_Send_Stop
  3814 ;;		_MSSP_I2C_Master_Write_Blocking
  3815 ;; This function is called by:
  3816 ;;		_ServoDriver_Init
  3817 ;;		_Servo_SetAngle
  3818 ;; This function uses a non-reentrant model
  3819 ;;
  3820                           
  3821                           	psect	text14
  3822  002768                     __ptext14:
  3823                           	callstack 0
  3824  002768                     _PCA_Write_Reg:
  3825                           	callstack 25
  3826  002768                     
  3827                           ;ECU/SERVO_MOTOR_I2C/ecu_servo_motor_i2c.c: 52: static void PCA_Write_Reg(const mssp_i2c
      +                          _t *i2c_obj,uint8 slave_address,uint8 reg_address,uint8 data);ECU/SERVO_MOTOR_I2C/ecu_se
      +                          rvo_motor_i2c.c: 53: {;ECU/SERVO_MOTOR_I2C/ecu_servo_motor_i2c.c: 54:     uint8 ack=6;
  3828  002768  0E06               	movlw	6
  3829  00276A  6E0E               	movwf	PCA_Write_Reg@ack^0,c
  3830  00276C                     
  3831                           ;ECU/SERVO_MOTOR_I2C/ecu_servo_motor_i2c.c: 56:     MSSP_I2C_Master_Send_Start(i2c_obj);
  3832  00276C  C009  F003         	movff	PCA_Write_Reg@i2c_obj,MSSP_I2C_Master_Send_Start@i2c_obj
  3833  002770  C00A  F004         	movff	PCA_Write_Reg@i2c_obj+1,MSSP_I2C_Master_Send_Start@i2c_obj+1
  3834  002774  EC7D  F014         	call	_MSSP_I2C_Master_Send_Start	;wreg free
  3835  002778                     
  3836                           ;ECU/SERVO_MOTOR_I2C/ecu_servo_motor_i2c.c: 58:     MSSP_I2C_Master_Write_Blocking(i2c_o
      +                          bj,slave_address,&ack);
  3837  002778  C009  F003         	movff	PCA_Write_Reg@i2c_obj,MSSP_I2C_Master_Write_Blocking@i2c_obj
  3838  00277C  C00A  F004         	movff	PCA_Write_Reg@i2c_obj+1,MSSP_I2C_Master_Write_Blocking@i2c_obj+1
  3839  002780  C00B  F005         	movff	PCA_Write_Reg@slave_address,MSSP_I2C_Master_Write_Blocking@i2c_data
  3840  002784  0E0E               	movlw	low PCA_Write_Reg@ack
  3841  002786  6E06               	movwf	MSSP_I2C_Master_Write_Blocking@_ack^0,c
  3842  002788  0E00               	movlw	high PCA_Write_Reg@ack
  3843  00278A  6E07               	movwf	(MSSP_I2C_Master_Write_Blocking@_ack+1)^0,c
  3844  00278C  EC80  F013         	call	_MSSP_I2C_Master_Write_Blocking	;wreg free
  3845  002790                     
  3846                           ;ECU/SERVO_MOTOR_I2C/ecu_servo_motor_i2c.c: 60:     MSSP_I2C_Master_Write_Blocking(i2c_o
      +                          bj,reg_address,&ack);
  3847  002790  C009  F003         	movff	PCA_Write_Reg@i2c_obj,MSSP_I2C_Master_Write_Blocking@i2c_obj
  3848  002794  C00A  F004         	movff	PCA_Write_Reg@i2c_obj+1,MSSP_I2C_Master_Write_Blocking@i2c_obj+1
  3849  002798  C00C  F005         	movff	PCA_Write_Reg@reg_address,MSSP_I2C_Master_Write_Blocking@i2c_data
  3850  00279C  0E0E               	movlw	low PCA_Write_Reg@ack
  3851  00279E  6E06               	movwf	MSSP_I2C_Master_Write_Blocking@_ack^0,c
  3852  0027A0  0E00               	movlw	high PCA_Write_Reg@ack
  3853  0027A2  6E07               	movwf	(MSSP_I2C_Master_Write_Blocking@_ack+1)^0,c
  3854  0027A4  EC80  F013         	call	_MSSP_I2C_Master_Write_Blocking	;wreg free
  3855  0027A8                     
  3856                           ;ECU/SERVO_MOTOR_I2C/ecu_servo_motor_i2c.c: 62:     MSSP_I2C_Master_Write_Blocking(i2c_o
      +                          bj,data,&ack);
  3857  0027A8  C009  F003         	movff	PCA_Write_Reg@i2c_obj,MSSP_I2C_Master_Write_Blocking@i2c_obj
  3858  0027AC  C00A  F004         	movff	PCA_Write_Reg@i2c_obj+1,MSSP_I2C_Master_Write_Blocking@i2c_obj+1
  3859  0027B0  C00D  F005         	movff	PCA_Write_Reg@data,MSSP_I2C_Master_Write_Blocking@i2c_data
  3860  0027B4  0E0E               	movlw	low PCA_Write_Reg@ack
  3861  0027B6  6E06               	movwf	MSSP_I2C_Master_Write_Blocking@_ack^0,c
  3862  0027B8  0E00               	movlw	high PCA_Write_Reg@ack
  3863  0027BA  6E07               	movwf	(MSSP_I2C_Master_Write_Blocking@_ack+1)^0,c
  3864  0027BC  EC80  F013         	call	_MSSP_I2C_Master_Write_Blocking	;wreg free
  3865  0027C0                     
  3866                           ;ECU/SERVO_MOTOR_I2C/ecu_servo_motor_i2c.c: 64:     MSSP_I2C_Master_Send_Stop(i2c_obj);
  3867  0027C0  C009  F003         	movff	PCA_Write_Reg@i2c_obj,MSSP_I2C_Master_Send_Stop@i2c_obj
  3868  0027C4  C00A  F004         	movff	PCA_Write_Reg@i2c_obj+1,MSSP_I2C_Master_Send_Stop@i2c_obj+1
  3869  0027C8  EC61  F014         	call	_MSSP_I2C_Master_Send_Stop	;wreg free
  3870  0027CC  0012               	return		;funcret
  3871  0027CE                     __end_of_PCA_Write_Reg:
  3872                           	callstack 0
  3873                           
  3874 ;; *************** function _MSSP_I2C_Master_Write_Blocking *****************
  3875 ;; Defined at:
  3876 ;;		line 196 in file "MCAL/I2C/mcal_i2c.c"
  3877 ;; Parameters:    Size  Location     Type
  3878 ;;  i2c_obj         2    2[COMRAM] PTR const struct .
  3879 ;;		 -> i2c_obj(13), 
  3880 ;;  i2c_data        1    4[COMRAM] unsigned char 
  3881 ;;  _ack            2    5[COMRAM] PTR unsigned char 
  3882 ;;		 -> ack(1), PCA_Write_Reg@ack(1), 
  3883 ;; Auto vars:     Size  Location     Type
  3884 ;;  ERRORSTATUS     1    0        unsigned char 
  3885 ;; Return value:  Size  Location     Type
  3886 ;;                  1    wreg      unsigned char 
  3887 ;; Registers used:
  3888 ;;		wreg, fsr2l, fsr2h, status,2, status,0
  3889 ;; Tracked objects:
  3890 ;;		On entry : 0/0
  3891 ;;		On exit  : 0/0
  3892 ;;		Unchanged: 0/0
  3893 ;; Data sizes:     COMRAM   BANK0   BANK1   BANK2   BANK3   BANK4   BANK5   BANK6   BANK7   BANK8   BANK9  BANK10  BANK1
      +1  BANK12  BANK13  BANK14  BANK15
  3894 ;;      Params:         5       0       0       0       0       0       0       0       0       0       0       0       
      +0       0       0       0       0
  3895 ;;      Locals:         1       0       0       0       0       0       0       0       0       0       0       0       
      +0       0       0       0       0
  3896 ;;      Temps:          0       0       0       0       0       0       0       0       0       0       0       0       
      +0       0       0       0       0
  3897 ;;      Totals:         6       0       0       0       0       0       0       0       0       0       0       0       
      +0       0       0       0       0
  3898 ;;Total ram usage:        6 bytes
  3899 ;; Hardware stack levels used:    1
  3900 ;; Hardware stack levels required when called:    2
  3901 ;; This function calls:
  3902 ;;		Nothing
  3903 ;; This function is called by:
  3904 ;;		_PCA_Write_Reg
  3905 ;;		_mssp_i2c_send_1_byte
  3906 ;; This function uses a non-reentrant model
  3907 ;;
  3908                           
  3909                           	psect	text15
  3910  002700                     __ptext15:
  3911                           	callstack 0
  3912  002700                     _MSSP_I2C_Master_Write_Blocking:
  3913                           	callstack 25
  3914  002700                     
  3915                           ;MCAL/I2C/mcal_i2c.c: 199:     if (((void*)0)==i2c_obj||((void*)0)==_ack)
  3916  002700  5003               	movf	MSSP_I2C_Master_Write_Blocking@i2c_obj^0,w,c
  3917  002702  1004               	iorwf	(MSSP_I2C_Master_Write_Blocking@i2c_obj+1)^0,w,c
  3918  002704  B4D8               	btfsc	status,2,c
  3919  002706  EF87  F013         	goto	u8281
  3920  00270A  EF89  F013         	goto	u8280
  3921  00270E                     u8281:
  3922  00270E  EF92  F013         	goto	l8128
  3923  002712                     u8280:
  3924  002712  5006               	movf	MSSP_I2C_Master_Write_Blocking@_ack^0,w,c
  3925  002714  1007               	iorwf	(MSSP_I2C_Master_Write_Blocking@_ack+1)^0,w,c
  3926  002716  A4D8               	btfss	status,2,c
  3927  002718  EF90  F013         	goto	u8291
  3928  00271C  EF92  F013         	goto	u8290
  3929  002720                     u8291:
  3930  002720  EF94  F013         	goto	l793
  3931  002724                     u8290:
  3932  002724                     l8128:
  3933                           
  3934                           ;MCAL/I2C/mcal_i2c.c: 202:     }
  3935  002724  EFB3  F013         	goto	l802
  3936  002728                     l793:
  3937                           
  3938                           ;MCAL/I2C/mcal_i2c.c: 204:     {;MCAL/I2C/mcal_i2c.c: 206:         SSPBUF=i2c_data;
  3939  002728  C005  FFC9         	movff	MSSP_I2C_Master_Write_Blocking@i2c_data,4041	;volatile
  3940  00272C                     l797:
  3941  00272C  B0C7               	btfsc	199,0,c	;volatile
  3942  00272E  EF9B  F013         	goto	u8301
  3943  002732  EF9D  F013         	goto	u8300
  3944  002736                     u8301:
  3945  002736  EF96  F013         	goto	l797
  3946  00273A                     u8300:
  3947  00273A                     
  3948                           ;MCAL/I2C/mcal_i2c.c: 210:         PIR1bits.SSPIF = 0;
  3949  00273A  969E               	bcf	158,3,c	;volatile
  3950                           
  3951                           ;MCAL/I2C/mcal_i2c.c: 212:         if(0 == SSPCON2bits.ACKSTAT)
  3952  00273C  BCC5               	btfsc	197,6,c	;volatile
  3953  00273E  EFA3  F013         	goto	u8311
  3954  002742  EFA5  F013         	goto	u8310
  3955  002746                     u8311:
  3956  002746  EFAD  F013         	goto	l8132
  3957  00274A                     u8310:
  3958  00274A                     
  3959                           ;MCAL/I2C/mcal_i2c.c: 213:         {;MCAL/I2C/mcal_i2c.c: 214:             *_ack = 0;
  3960  00274A  C006  FFD9         	movff	MSSP_I2C_Master_Write_Blocking@_ack,fsr2l
  3961  00274E  C007  FFDA         	movff	MSSP_I2C_Master_Write_Blocking@_ack+1,fsr2h
  3962  002752  0E00               	movlw	0
  3963  002754  6EDF               	movwf	indf2,c
  3964                           
  3965                           ;MCAL/I2C/mcal_i2c.c: 215:         }
  3966  002756  EFB3  F013         	goto	l802
  3967  00275A                     l8132:
  3968                           
  3969                           ;MCAL/I2C/mcal_i2c.c: 217:         {;MCAL/I2C/mcal_i2c.c: 218:             *_ack = 1;
  3970  00275A  C006  FFD9         	movff	MSSP_I2C_Master_Write_Blocking@_ack,fsr2l
  3971  00275E  C007  FFDA         	movff	MSSP_I2C_Master_Write_Blocking@_ack+1,fsr2h
  3972  002762  0E01               	movlw	1
  3973  002764  6EDF               	movwf	indf2,c
  3974  002766                     l802:
  3975  002766  0012               	return		;funcret
  3976  002768                     __end_of_MSSP_I2C_Master_Write_Blocking:
  3977                           	callstack 0
  3978                           
  3979 ;; *************** function _MSSP_I2C_Master_Send_Stop *****************
  3980 ;; Defined at:
  3981 ;;		line 166 in file "MCAL/I2C/mcal_i2c.c"
  3982 ;; Parameters:    Size  Location     Type
  3983 ;;  i2c_obj         2    2[COMRAM] PTR const struct .
  3984 ;;		 -> i2c_obj(13), 
  3985 ;; Auto vars:     Size  Location     Type
  3986 ;;  ERRORSTATUS     1    0        unsigned char 
  3987 ;; Return value:  Size  Location     Type
  3988 ;;                  1    wreg      unsigned char 
  3989 ;; Registers used:
  3990 ;;		wreg, status,2, status,0
  3991 ;; Tracked objects:
  3992 ;;		On entry : 0/0
  3993 ;;		On exit  : 0/0
  3994 ;;		Unchanged: 0/0
  3995 ;; Data sizes:     COMRAM   BANK0   BANK1   BANK2   BANK3   BANK4   BANK5   BANK6   BANK7   BANK8   BANK9  BANK10  BANK1
      +1  BANK12  BANK13  BANK14  BANK15
  3996 ;;      Params:         2       0       0       0       0       0       0       0       0       0       0       0       
      +0       0       0       0       0
  3997 ;;      Locals:         1       0       0       0       0       0       0       0       0       0       0       0       
      +0       0       0       0       0
  3998 ;;      Temps:          0       0       0       0       0       0       0       0       0       0       0       0       
      +0       0       0       0       0
  3999 ;;      Totals:         3       0       0       0       0       0       0       0       0       0       0       0       
      +0       0       0       0       0
  4000 ;;Total ram usage:        3 bytes
  4001 ;; Hardware stack levels used:    1
  4002 ;; Hardware stack levels required when called:    2
  4003 ;; This function calls:
  4004 ;;		Nothing
  4005 ;; This function is called by:
  4006 ;;		_PCA_Write_Reg
  4007 ;;		_mssp_i2c_send_1_byte
  4008 ;; This function uses a non-reentrant model
  4009 ;;
  4010                           
  4011                           	psect	text16
  4012  0028C2                     __ptext16:
  4013                           	callstack 0
  4014  0028C2                     _MSSP_I2C_Master_Send_Stop:
  4015                           	callstack 25
  4016  0028C2                     
  4017                           ;MCAL/I2C/mcal_i2c.c: 169:     if (((void*)0)==i2c_obj)
  4018  0028C2  5003               	movf	MSSP_I2C_Master_Send_Stop@i2c_obj^0,w,c
  4019  0028C4  1004               	iorwf	(MSSP_I2C_Master_Send_Stop@i2c_obj+1)^0,w,c
  4020  0028C6  A4D8               	btfss	status,2,c
  4021  0028C8  EF68  F014         	goto	u8321
  4022  0028CC  EF6A  F014         	goto	u8320
  4023  0028D0                     u8321:
  4024  0028D0  EF6C  F014         	goto	l783
  4025  0028D4                     u8320:
  4026  0028D4                     l8140:
  4027                           
  4028                           ;MCAL/I2C/mcal_i2c.c: 172:     }
  4029  0028D4  EF7C  F014         	goto	l790
  4030  0028D8                     l783:
  4031                           
  4032                           ;MCAL/I2C/mcal_i2c.c: 174:     {;MCAL/I2C/mcal_i2c.c: 176:         SSPCON2bits.PEN = 1;
  4033  0028D8  84C5               	bsf	197,2,c	;volatile
  4034  0028DA                     l785:
  4035  0028DA  B4C5               	btfsc	197,2,c	;volatile
  4036  0028DC  EF72  F014         	goto	u8331
  4037  0028E0  EF74  F014         	goto	u8330
  4038  0028E4                     u8331:
  4039  0028E4  EF6D  F014         	goto	l785
  4040  0028E8                     u8330:
  4041  0028E8                     
  4042                           ;MCAL/I2C/mcal_i2c.c: 180:         PIR1bits.SSPIF = 0;
  4043  0028E8  969E               	bcf	158,3,c	;volatile
  4044                           
  4045                           ;MCAL/I2C/mcal_i2c.c: 182:         if(1 == SSPSTATbits.P)
  4046  0028EA  A8C7               	btfss	199,4,c	;volatile
  4047  0028EC  EF7A  F014         	goto	u8341
  4048  0028F0  EF7C  F014         	goto	u8340
  4049  0028F4                     u8341:
  4050  0028F4  EF6A  F014         	goto	l8140
  4051  0028F8                     u8340:
  4052  0028F8                     l790:
  4053  0028F8  0012               	return		;funcret
  4054  0028FA                     __end_of_MSSP_I2C_Master_Send_Stop:
  4055                           	callstack 0
  4056                           
  4057 ;; *************** function _MSSP_I2C_Master_Send_Start *****************
  4058 ;; Defined at:
  4059 ;;		line 116 in file "MCAL/I2C/mcal_i2c.c"
  4060 ;; Parameters:    Size  Location     Type
  4061 ;;  i2c_obj         2    2[COMRAM] PTR const struct .
  4062 ;;		 -> i2c_obj(13), 
  4063 ;; Auto vars:     Size  Location     Type
  4064 ;;  ERRORSTATUS     1    0        unsigned char 
  4065 ;; Return value:  Size  Location     Type
  4066 ;;                  1    wreg      unsigned char 
  4067 ;; Registers used:
  4068 ;;		wreg, status,2, status,0
  4069 ;; Tracked objects:
  4070 ;;		On entry : 0/0
  4071 ;;		On exit  : 0/0
  4072 ;;		Unchanged: 0/0
  4073 ;; Data sizes:     COMRAM   BANK0   BANK1   BANK2   BANK3   BANK4   BANK5   BANK6   BANK7   BANK8   BANK9  BANK10  BANK1
      +1  BANK12  BANK13  BANK14  BANK15
  4074 ;;      Params:         2       0       0       0       0       0       0       0       0       0       0       0       
      +0       0       0       0       0
  4075 ;;      Locals:         1       0       0       0       0       0       0       0       0       0       0       0       
      +0       0       0       0       0
  4076 ;;      Temps:          0       0       0       0       0       0       0       0       0       0       0       0       
      +0       0       0       0       0
  4077 ;;      Totals:         3       0       0       0       0       0       0       0       0       0       0       0       
      +0       0       0       0       0
  4078 ;;Total ram usage:        3 bytes
  4079 ;; Hardware stack levels used:    1
  4080 ;; Hardware stack levels required when called:    2
  4081 ;; This function calls:
  4082 ;;		Nothing
  4083 ;; This function is called by:
  4084 ;;		_PCA_Write_Reg
  4085 ;;		_mssp_i2c_send_1_byte
  4086 ;; This function uses a non-reentrant model
  4087 ;;
  4088                           
  4089                           	psect	text17
  4090  0028FA                     __ptext17:
  4091                           	callstack 0
  4092  0028FA                     _MSSP_I2C_Master_Send_Start:
  4093                           	callstack 25
  4094  0028FA                     
  4095                           ;MCAL/I2C/mcal_i2c.c: 119:     if (((void*)0)==i2c_obj)
  4096  0028FA  5003               	movf	MSSP_I2C_Master_Send_Start@i2c_obj^0,w,c
  4097  0028FC  1004               	iorwf	(MSSP_I2C_Master_Send_Start@i2c_obj+1)^0,w,c
  4098  0028FE  A4D8               	btfss	status,2,c
  4099  002900  EF84  F014         	goto	u8251
  4100  002904  EF86  F014         	goto	u8250
  4101  002908                     u8251:
  4102  002908  EF88  F014         	goto	l765
  4103  00290C                     u8250:
  4104  00290C                     l8114:
  4105                           
  4106                           ;MCAL/I2C/mcal_i2c.c: 122:     }
  4107  00290C  EF98  F014         	goto	l772
  4108  002910                     l765:
  4109                           
  4110                           ;MCAL/I2C/mcal_i2c.c: 124:     {;MCAL/I2C/mcal_i2c.c: 126:         SSPCON2bits.SEN = 1;
  4111  002910  80C5               	bsf	197,0,c	;volatile
  4112  002912                     l767:
  4113  002912  B0C5               	btfsc	197,0,c	;volatile
  4114  002914  EF8E  F014         	goto	u8261
  4115  002918  EF90  F014         	goto	u8260
  4116  00291C                     u8261:
  4117  00291C  EF89  F014         	goto	l767
  4118  002920                     u8260:
  4119  002920                     
  4120                           ;MCAL/I2C/mcal_i2c.c: 130:         PIR1bits.SSPIF = 0;
  4121  002920  969E               	bcf	158,3,c	;volatile
  4122                           
  4123                           ;MCAL/I2C/mcal_i2c.c: 132:         if(1 == SSPSTATbits.S)
  4124  002922  A6C7               	btfss	199,3,c	;volatile
  4125  002924  EF96  F014         	goto	u8271
  4126  002928  EF98  F014         	goto	u8270
  4127  00292C                     u8271:
  4128  00292C  EF86  F014         	goto	l8114
  4129  002930                     u8270:
  4130  002930                     l772:
  4131  002930  0012               	return		;funcret
  4132  002932                     __end_of_MSSP_I2C_Master_Send_Start:
  4133                           	callstack 0
  4134                           
  4135 ;; *************** function _Interrupt_Manager *****************
  4136 ;; Defined at:
  4137 ;;		line 41 in file "MCAL/INTERRUPT/mcal_interrupt_manager.c"
  4138 ;; Parameters:    Size  Location     Type
  4139 ;;		None
  4140 ;; Auto vars:     Size  Location     Type
  4141 ;;		None
  4142 ;; Return value:  Size  Location     Type
  4143 ;;                  1    wreg      void 
  4144 ;; Registers used:
  4145 ;;		wreg, status,2, status,0, cstack
  4146 ;; Tracked objects:
  4147 ;;		On entry : 0/0
  4148 ;;		On exit  : 0/0
  4149 ;;		Unchanged: 0/0
  4150 ;; Data sizes:     COMRAM   BANK0   BANK1   BANK2   BANK3   BANK4   BANK5   BANK6   BANK7   BANK8   BANK9  BANK10  BANK1
      +1  BANK12  BANK13  BANK14  BANK15
  4151 ;;      Params:         0       0       0       0       0       0       0       0       0       0       0       0       
      +0       0       0       0       0
  4152 ;;      Locals:         0       0       0       0       0       0       0       0       0       0       0       0       
      +0       0       0       0       0
  4153 ;;      Temps:          0       0       0       0       0       0       0       0       0       0       0       0       
      +0       0       0       0       0
  4154 ;;      Totals:         0       0       0       0       0       0       0       0       0       0       0       0       
      +0       0       0       0       0
  4155 ;;Total ram usage:        0 bytes
  4156 ;; Hardware stack levels used:    1
  4157 ;; Hardware stack levels required when called:    1
  4158 ;; This function calls:
  4159 ;;		_ADC_ISR
  4160 ;;		_CCP1_ISR
  4161 ;;		_EUSART_RX_ISR
  4162 ;;		_EUSART_TX_ISR
  4163 ;;		_I2C_BC_ISR
  4164 ;;		_I2C_ISR
  4165 ;;		_INT0_ISR
  4166 ;;		_INT1_ISR
  4167 ;;		_INT2_ISR
  4168 ;;		_RB4_ISR
  4169 ;;		_RB5_ISR
  4170 ;;		_RB6_ISR
  4171 ;;		_RB7_ISR
  4172 ;;		_TMR0_ISR
  4173 ;;		_TMR1_ISR
  4174 ;;		_TMR2_ISR
  4175 ;;		_TMR3_ISR
  4176 ;; This function is called by:
  4177 ;;		Interrupt level 2
  4178 ;; This function uses a non-reentrant model
  4179 ;;
  4180                           
  4181                           	psect	intcode
  4182  000008                     __pintcode:
  4183                           	callstack 0
  4184  000008                     _Interrupt_Manager:
  4185                           	callstack 24
  4186                           
  4187                           ;incstack = 0
  4188  000008  827C               	bsf	int$flags,1,c	;set compiler interrupt flag (level 2)
  4189  00000A  ED78  F00C         	call	int_func,f	;refresh shadow registers
  4190                           
  4191                           	psect	intcode_body
  4192  0018F0                     __pintcode_body:
  4193                           	callstack 24
  4194  0018F0                     int_func:
  4195                           	callstack 24
  4196  0018F0  0006               	pop		; remove dummy address from shadow register refresh
  4197  0018F2                     
  4198                           ;MCAL/INTERRUPT/mcal_interrupt_manager.c: 43:      if((1==INTCONbits.INT0E)&&(1==INTCONb
      +                          its.INT0F))
  4199  0018F2  A8F2               	btfss	242,4,c	;volatile
  4200  0018F4  EF7E  F00C         	goto	i2u652_41
  4201  0018F8  EF80  F00C         	goto	i2u652_40
  4202  0018FC                     i2u652_41:
  4203  0018FC  EF89  F00C         	goto	i2l1151
  4204  001900                     i2u652_40:
  4205  001900  A2F2               	btfss	242,1,c	;volatile
  4206  001902  EF85  F00C         	goto	i2u653_41
  4207  001906  EF87  F00C         	goto	i2u653_40
  4208  00190A                     i2u653_41:
  4209  00190A  EF89  F00C         	goto	i2l1151
  4210  00190E                     i2u653_40:
  4211  00190E                     
  4212                           ;MCAL/INTERRUPT/mcal_interrupt_manager.c: 44:     {;MCAL/INTERRUPT/mcal_interrupt_manage
      +                          r.c: 45:        INT0_ISR();
  4213  00190E  EC25  F015         	call	_INT0_ISR	;wreg free
  4214  001912                     i2l1151:
  4215                           
  4216                           ;MCAL/INTERRUPT/mcal_interrupt_manager.c: 48:     if((1==INTCON3bits.INT1E)&&(1==INTCON3
      +                          bits.INT1F))
  4217  001912  A6F0               	btfss	240,3,c	;volatile
  4218  001914  EF8E  F00C         	goto	i2u654_41
  4219  001918  EF90  F00C         	goto	i2u654_40
  4220  00191C                     i2u654_41:
  4221  00191C  EF99  F00C         	goto	i2l1153
  4222  001920                     i2u654_40:
  4223  001920  A0F0               	btfss	240,0,c	;volatile
  4224  001922  EF95  F00C         	goto	i2u655_41
  4225  001926  EF97  F00C         	goto	i2u655_40
  4226  00192A                     i2u655_41:
  4227  00192A  EF99  F00C         	goto	i2l1153
  4228  00192E                     i2u655_40:
  4229  00192E                     
  4230                           ;MCAL/INTERRUPT/mcal_interrupt_manager.c: 49:     {;MCAL/INTERRUPT/mcal_interrupt_manage
      +                          r.c: 50:         INT1_ISR();
  4231  00192E  EC23  F015         	call	_INT1_ISR	;wreg free
  4232  001932                     i2l1153:
  4233                           
  4234                           ;MCAL/INTERRUPT/mcal_interrupt_manager.c: 54:     if((1==INTCON3bits.INT2E)&&(1==INTCON3
      +                          bits.INT2F))
  4235  001932  A8F0               	btfss	240,4,c	;volatile
  4236  001934  EF9E  F00C         	goto	i2u656_41
  4237  001938  EFA0  F00C         	goto	i2u656_40
  4238  00193C                     i2u656_41:
  4239  00193C  EFA9  F00C         	goto	i2l1155
  4240  001940                     i2u656_40:
  4241  001940  A2F0               	btfss	240,1,c	;volatile
  4242  001942  EFA5  F00C         	goto	i2u657_41
  4243  001946  EFA7  F00C         	goto	i2u657_40
  4244  00194A                     i2u657_41:
  4245  00194A  EFA9  F00C         	goto	i2l1155
  4246  00194E                     i2u657_40:
  4247  00194E                     
  4248                           ;MCAL/INTERRUPT/mcal_interrupt_manager.c: 55:     {;MCAL/INTERRUPT/mcal_interrupt_manage
      +                          r.c: 56:         INT2_ISR();
  4249  00194E  EC21  F015         	call	_INT2_ISR	;wreg free
  4250  001952                     i2l1155:
  4251                           
  4252                           ;MCAL/INTERRUPT/mcal_interrupt_manager.c: 59:     if((1==INTCONbits.RBIE)&&(1==INTCONbit
      +                          s.RBIF)&&(PORTBbits.RB4==GPIO_HIGH)&&(RB4_flag==1))
  4253  001952  A6F2               	btfss	242,3,c	;volatile
  4254  001954  EFAE  F00C         	goto	i2u658_41
  4255  001958  EFB0  F00C         	goto	i2u658_40
  4256  00195C                     i2u658_41:
  4257  00195C  EFCB  F00C         	goto	i2l1157
  4258  001960                     i2u658_40:
  4259  001960  A0F2               	btfss	242,0,c	;volatile
  4260  001962  EFB5  F00C         	goto	i2u659_41
  4261  001966  EFB7  F00C         	goto	i2u659_40
  4262  00196A                     i2u659_41:
  4263  00196A  EFCB  F00C         	goto	i2l1157
  4264  00196E                     i2u659_40:
  4265  00196E  A881               	btfss	129,4,c	;volatile
  4266  001970  EFBC  F00C         	goto	i2u660_41
  4267  001974  EFBE  F00C         	goto	i2u660_40
  4268  001978                     i2u660_41:
  4269  001978  EFCB  F00C         	goto	i2l1157
  4270  00197C                     i2u660_40:
  4271  00197C  047A               	decf	_RB4_flag^0,w,c	;volatile
  4272  00197E  A4D8               	btfss	status,2,c
  4273  001980  EFC4  F00C         	goto	i2u661_41
  4274  001984  EFC6  F00C         	goto	i2u661_40
  4275  001988                     i2u661_41:
  4276  001988  EFCB  F00C         	goto	i2l1157
  4277  00198C                     i2u661_40:
  4278  00198C                     
  4279                           ;MCAL/INTERRUPT/mcal_interrupt_manager.c: 60:     {;MCAL/INTERRUPT/mcal_interrupt_manage
      +                          r.c: 61:         RB4_flag=0;
  4280  00198C  0E00               	movlw	0
  4281  00198E  6E7A               	movwf	_RB4_flag^0,c	;volatile
  4282  001990                     
  4283                           ;MCAL/INTERRUPT/mcal_interrupt_manager.c: 62:         RB4_ISR(1);
  4284  001990  0E01               	movlw	1
  4285  001992  ECF8  F014         	call	_RB4_ISR
  4286  001996                     i2l1157:
  4287                           
  4288                           ;MCAL/INTERRUPT/mcal_interrupt_manager.c: 65:     if((1==INTCONbits.RBIE)&&(1==INTCONbit
      +                          s.RBIF)&&(PORTBbits.RB4==GPIO_LOW&&(RB4_flag==0)))
  4289  001996  A6F2               	btfss	242,3,c	;volatile
  4290  001998  EFD0  F00C         	goto	i2u662_41
  4291  00199C  EFD2  F00C         	goto	i2u662_40
  4292  0019A0                     i2u662_41:
  4293  0019A0  EFED  F00C         	goto	i2l1159
  4294  0019A4                     i2u662_40:
  4295  0019A4  A0F2               	btfss	242,0,c	;volatile
  4296  0019A6  EFD7  F00C         	goto	i2u663_41
  4297  0019AA  EFD9  F00C         	goto	i2u663_40
  4298  0019AE                     i2u663_41:
  4299  0019AE  EFED  F00C         	goto	i2l1159
  4300  0019B2                     i2u663_40:
  4301  0019B2  B881               	btfsc	129,4,c	;volatile
  4302  0019B4  EFDE  F00C         	goto	i2u664_41
  4303  0019B8  EFE0  F00C         	goto	i2u664_40
  4304  0019BC                     i2u664_41:
  4305  0019BC  EFED  F00C         	goto	i2l1159
  4306  0019C0                     i2u664_40:
  4307  0019C0  507A               	movf	_RB4_flag^0,w,c	;volatile
  4308  0019C2  A4D8               	btfss	status,2,c
  4309  0019C4  EFE6  F00C         	goto	i2u665_41
  4310  0019C8  EFE8  F00C         	goto	i2u665_40
  4311  0019CC                     i2u665_41:
  4312  0019CC  EFED  F00C         	goto	i2l1159
  4313  0019D0                     i2u665_40:
  4314  0019D0                     
  4315                           ;MCAL/INTERRUPT/mcal_interrupt_manager.c: 66:     {;MCAL/INTERRUPT/mcal_interrupt_manage
      +                          r.c: 67:         RB4_flag=1;
  4316  0019D0  0E01               	movlw	1
  4317  0019D2  6E7A               	movwf	_RB4_flag^0,c	;volatile
  4318  0019D4                     
  4319                           ;MCAL/INTERRUPT/mcal_interrupt_manager.c: 68:         RB4_ISR(0);
  4320  0019D4  0E00               	movlw	0
  4321  0019D6  ECF8  F014         	call	_RB4_ISR
  4322  0019DA                     i2l1159:
  4323                           
  4324                           ;MCAL/INTERRUPT/mcal_interrupt_manager.c: 71:     if((1==INTCONbits.RBIE)&&(1==INTCONbit
      +                          s.RBIF)&&(PORTBbits.RB5==GPIO_HIGH)&&(RB5_flag==1))
  4325  0019DA  A6F2               	btfss	242,3,c	;volatile
  4326  0019DC  EFF2  F00C         	goto	i2u666_41
  4327  0019E0  EFF4  F00C         	goto	i2u666_40
  4328  0019E4                     i2u666_41:
  4329  0019E4  EF0F  F00D         	goto	i2l1161
  4330  0019E8                     i2u666_40:
  4331  0019E8  A0F2               	btfss	242,0,c	;volatile
  4332  0019EA  EFF9  F00C         	goto	i2u667_41
  4333  0019EE  EFFB  F00C         	goto	i2u667_40
  4334  0019F2                     i2u667_41:
  4335  0019F2  EF0F  F00D         	goto	i2l1161
  4336  0019F6                     i2u667_40:
  4337  0019F6  AA81               	btfss	129,5,c	;volatile
  4338  0019F8  EF00  F00D         	goto	i2u668_41
  4339  0019FC  EF02  F00D         	goto	i2u668_40
  4340  001A00                     i2u668_41:
  4341  001A00  EF0F  F00D         	goto	i2l1161
  4342  001A04                     i2u668_40:
  4343  001A04  0479               	decf	_RB5_flag^0,w,c	;volatile
  4344  001A06  A4D8               	btfss	status,2,c
  4345  001A08  EF08  F00D         	goto	i2u669_41
  4346  001A0C  EF0A  F00D         	goto	i2u669_40
  4347  001A10                     i2u669_41:
  4348  001A10  EF0F  F00D         	goto	i2l1161
  4349  001A14                     i2u669_40:
  4350  001A14                     
  4351                           ;MCAL/INTERRUPT/mcal_interrupt_manager.c: 72:     {;MCAL/INTERRUPT/mcal_interrupt_manage
      +                          r.c: 73:         RB5_flag=0;
  4352  001A14  0E00               	movlw	0
  4353  001A16  6E79               	movwf	_RB5_flag^0,c	;volatile
  4354  001A18                     
  4355                           ;MCAL/INTERRUPT/mcal_interrupt_manager.c: 74:         RB5_ISR(1);
  4356  001A18  0E01               	movlw	1
  4357  001A1A  ECEB  F014         	call	_RB5_ISR
  4358  001A1E                     i2l1161:
  4359                           
  4360                           ;MCAL/INTERRUPT/mcal_interrupt_manager.c: 77:     if((1==INTCONbits.RBIE)&&(1==INTCONbit
      +                          s.RBIF)&&(PORTBbits.RB5==GPIO_LOW)&&(RB5_flag==0))
  4361  001A1E  A6F2               	btfss	242,3,c	;volatile
  4362  001A20  EF14  F00D         	goto	i2u670_41
  4363  001A24  EF16  F00D         	goto	i2u670_40
  4364  001A28                     i2u670_41:
  4365  001A28  EF31  F00D         	goto	i2l1163
  4366  001A2C                     i2u670_40:
  4367  001A2C  A0F2               	btfss	242,0,c	;volatile
  4368  001A2E  EF1B  F00D         	goto	i2u671_41
  4369  001A32  EF1D  F00D         	goto	i2u671_40
  4370  001A36                     i2u671_41:
  4371  001A36  EF31  F00D         	goto	i2l1163
  4372  001A3A                     i2u671_40:
  4373  001A3A  BA81               	btfsc	129,5,c	;volatile
  4374  001A3C  EF22  F00D         	goto	i2u672_41
  4375  001A40  EF24  F00D         	goto	i2u672_40
  4376  001A44                     i2u672_41:
  4377  001A44  EF31  F00D         	goto	i2l1163
  4378  001A48                     i2u672_40:
  4379  001A48  5079               	movf	_RB5_flag^0,w,c	;volatile
  4380  001A4A  A4D8               	btfss	status,2,c
  4381  001A4C  EF2A  F00D         	goto	i2u673_41
  4382  001A50  EF2C  F00D         	goto	i2u673_40
  4383  001A54                     i2u673_41:
  4384  001A54  EF31  F00D         	goto	i2l1163
  4385  001A58                     i2u673_40:
  4386  001A58                     
  4387                           ;MCAL/INTERRUPT/mcal_interrupt_manager.c: 78:     {;MCAL/INTERRUPT/mcal_interrupt_manage
      +                          r.c: 79:         RB5_flag=1;
  4388  001A58  0E01               	movlw	1
  4389  001A5A  6E79               	movwf	_RB5_flag^0,c	;volatile
  4390  001A5C                     
  4391                           ;MCAL/INTERRUPT/mcal_interrupt_manager.c: 80:         RB5_ISR(0);
  4392  001A5C  0E00               	movlw	0
  4393  001A5E  ECEB  F014         	call	_RB5_ISR
  4394  001A62                     i2l1163:
  4395                           
  4396                           ;MCAL/INTERRUPT/mcal_interrupt_manager.c: 83:     if((1==INTCONbits.RBIE)&&(1==INTCONbit
      +                          s.RBIF)&&(PORTBbits.RB6==GPIO_HIGH)&&(RB6_flag==1))
  4397  001A62  A6F2               	btfss	242,3,c	;volatile
  4398  001A64  EF36  F00D         	goto	i2u674_41
  4399  001A68  EF38  F00D         	goto	i2u674_40
  4400  001A6C                     i2u674_41:
  4401  001A6C  EF53  F00D         	goto	i2l1165
  4402  001A70                     i2u674_40:
  4403  001A70  A0F2               	btfss	242,0,c	;volatile
  4404  001A72  EF3D  F00D         	goto	i2u675_41
  4405  001A76  EF3F  F00D         	goto	i2u675_40
  4406  001A7A                     i2u675_41:
  4407  001A7A  EF53  F00D         	goto	i2l1165
  4408  001A7E                     i2u675_40:
  4409  001A7E  AC81               	btfss	129,6,c	;volatile
  4410  001A80  EF44  F00D         	goto	i2u676_41
  4411  001A84  EF46  F00D         	goto	i2u676_40
  4412  001A88                     i2u676_41:
  4413  001A88  EF53  F00D         	goto	i2l1165
  4414  001A8C                     i2u676_40:
  4415  001A8C  0478               	decf	_RB6_flag^0,w,c	;volatile
  4416  001A8E  A4D8               	btfss	status,2,c
  4417  001A90  EF4C  F00D         	goto	i2u677_41
  4418  001A94  EF4E  F00D         	goto	i2u677_40
  4419  001A98                     i2u677_41:
  4420  001A98  EF53  F00D         	goto	i2l1165
  4421  001A9C                     i2u677_40:
  4422  001A9C                     
  4423                           ;MCAL/INTERRUPT/mcal_interrupt_manager.c: 84:     {;MCAL/INTERRUPT/mcal_interrupt_manage
      +                          r.c: 85:         RB6_flag=0;
  4424  001A9C  0E00               	movlw	0
  4425  001A9E  6E78               	movwf	_RB6_flag^0,c	;volatile
  4426  001AA0                     
  4427                           ;MCAL/INTERRUPT/mcal_interrupt_manager.c: 86:         RB6_ISR(1);
  4428  001AA0  0E01               	movlw	1
  4429  001AA2  ECDE  F014         	call	_RB6_ISR
  4430  001AA6                     i2l1165:
  4431                           
  4432                           ;MCAL/INTERRUPT/mcal_interrupt_manager.c: 89:     if((1==INTCONbits.RBIE)&&(1==INTCONbit
      +                          s.RBIF)&&(PORTBbits.RB6==GPIO_LOW)&&(RB6_flag==0))
  4433  001AA6  A6F2               	btfss	242,3,c	;volatile
  4434  001AA8  EF58  F00D         	goto	i2u678_41
  4435  001AAC  EF5A  F00D         	goto	i2u678_40
  4436  001AB0                     i2u678_41:
  4437  001AB0  EF75  F00D         	goto	i2l1167
  4438  001AB4                     i2u678_40:
  4439  001AB4  A0F2               	btfss	242,0,c	;volatile
  4440  001AB6  EF5F  F00D         	goto	i2u679_41
  4441  001ABA  EF61  F00D         	goto	i2u679_40
  4442  001ABE                     i2u679_41:
  4443  001ABE  EF75  F00D         	goto	i2l1167
  4444  001AC2                     i2u679_40:
  4445  001AC2  BC81               	btfsc	129,6,c	;volatile
  4446  001AC4  EF66  F00D         	goto	i2u680_41
  4447  001AC8  EF68  F00D         	goto	i2u680_40
  4448  001ACC                     i2u680_41:
  4449  001ACC  EF75  F00D         	goto	i2l1167
  4450  001AD0                     i2u680_40:
  4451  001AD0  5078               	movf	_RB6_flag^0,w,c	;volatile
  4452  001AD2  A4D8               	btfss	status,2,c
  4453  001AD4  EF6E  F00D         	goto	i2u681_41
  4454  001AD8  EF70  F00D         	goto	i2u681_40
  4455  001ADC                     i2u681_41:
  4456  001ADC  EF75  F00D         	goto	i2l1167
  4457  001AE0                     i2u681_40:
  4458  001AE0                     
  4459                           ;MCAL/INTERRUPT/mcal_interrupt_manager.c: 90:     {;MCAL/INTERRUPT/mcal_interrupt_manage
      +                          r.c: 91:         RB6_flag=1;
  4460  001AE0  0E01               	movlw	1
  4461  001AE2  6E78               	movwf	_RB6_flag^0,c	;volatile
  4462  001AE4                     
  4463                           ;MCAL/INTERRUPT/mcal_interrupt_manager.c: 92:         RB6_ISR(0);
  4464  001AE4  0E00               	movlw	0
  4465  001AE6  ECDE  F014         	call	_RB6_ISR
  4466  001AEA                     i2l1167:
  4467                           
  4468                           ;MCAL/INTERRUPT/mcal_interrupt_manager.c: 95:          if((1==INTCONbits.RBIE)&&(1==INTC
      +                          ONbits.RBIF)&&(PORTBbits.RB7==GPIO_HIGH)&&(RB7_flag==1))
  4469  001AEA  A6F2               	btfss	242,3,c	;volatile
  4470  001AEC  EF7A  F00D         	goto	i2u682_41
  4471  001AF0  EF7C  F00D         	goto	i2u682_40
  4472  001AF4                     i2u682_41:
  4473  001AF4  EF97  F00D         	goto	i2l1169
  4474  001AF8                     i2u682_40:
  4475  001AF8  A0F2               	btfss	242,0,c	;volatile
  4476  001AFA  EF81  F00D         	goto	i2u683_41
  4477  001AFE  EF83  F00D         	goto	i2u683_40
  4478  001B02                     i2u683_41:
  4479  001B02  EF97  F00D         	goto	i2l1169
  4480  001B06                     i2u683_40:
  4481  001B06  AE81               	btfss	129,7,c	;volatile
  4482  001B08  EF88  F00D         	goto	i2u684_41
  4483  001B0C  EF8A  F00D         	goto	i2u684_40
  4484  001B10                     i2u684_41:
  4485  001B10  EF97  F00D         	goto	i2l1169
  4486  001B14                     i2u684_40:
  4487  001B14  0477               	decf	_RB7_flag^0,w,c	;volatile
  4488  001B16  A4D8               	btfss	status,2,c
  4489  001B18  EF90  F00D         	goto	i2u685_41
  4490  001B1C  EF92  F00D         	goto	i2u685_40
  4491  001B20                     i2u685_41:
  4492  001B20  EF97  F00D         	goto	i2l1169
  4493  001B24                     i2u685_40:
  4494  001B24                     
  4495                           ;MCAL/INTERRUPT/mcal_interrupt_manager.c: 96:     {;MCAL/INTERRUPT/mcal_interrupt_manage
      +                          r.c: 97:         RB7_flag=0;
  4496  001B24  0E00               	movlw	0
  4497  001B26  6E77               	movwf	_RB7_flag^0,c	;volatile
  4498  001B28                     
  4499                           ;MCAL/INTERRUPT/mcal_interrupt_manager.c: 98:         RB7_ISR(1);
  4500  001B28  0E01               	movlw	1
  4501  001B2A  ECD1  F014         	call	_RB7_ISR
  4502  001B2E                     i2l1169:
  4503                           
  4504                           ;MCAL/INTERRUPT/mcal_interrupt_manager.c: 101:     if((1==INTCONbits.RBIE)&&(1==INTCONbi
      +                          ts.RBIF)&&(PORTBbits.RB7==GPIO_LOW)&&(RB7_flag==0))
  4505  001B2E  A6F2               	btfss	242,3,c	;volatile
  4506  001B30  EF9C  F00D         	goto	i2u686_41
  4507  001B34  EF9E  F00D         	goto	i2u686_40
  4508  001B38                     i2u686_41:
  4509  001B38  EFB9  F00D         	goto	i2l1171
  4510  001B3C                     i2u686_40:
  4511  001B3C  A0F2               	btfss	242,0,c	;volatile
  4512  001B3E  EFA3  F00D         	goto	i2u687_41
  4513  001B42  EFA5  F00D         	goto	i2u687_40
  4514  001B46                     i2u687_41:
  4515  001B46  EFB9  F00D         	goto	i2l1171
  4516  001B4A                     i2u687_40:
  4517  001B4A  BE81               	btfsc	129,7,c	;volatile
  4518  001B4C  EFAA  F00D         	goto	i2u688_41
  4519  001B50  EFAC  F00D         	goto	i2u688_40
  4520  001B54                     i2u688_41:
  4521  001B54  EFB9  F00D         	goto	i2l1171
  4522  001B58                     i2u688_40:
  4523  001B58  5077               	movf	_RB7_flag^0,w,c	;volatile
  4524  001B5A  A4D8               	btfss	status,2,c
  4525  001B5C  EFB2  F00D         	goto	i2u689_41
  4526  001B60  EFB4  F00D         	goto	i2u689_40
  4527  001B64                     i2u689_41:
  4528  001B64  EFB9  F00D         	goto	i2l1171
  4529  001B68                     i2u689_40:
  4530  001B68                     
  4531                           ;MCAL/INTERRUPT/mcal_interrupt_manager.c: 102:     {;MCAL/INTERRUPT/mcal_interrupt_manag
      +                          er.c: 103:         RB7_flag=1;
  4532  001B68  0E01               	movlw	1
  4533  001B6A  6E77               	movwf	_RB7_flag^0,c	;volatile
  4534  001B6C                     
  4535                           ;MCAL/INTERRUPT/mcal_interrupt_manager.c: 104:         RB7_ISR(0);
  4536  001B6C  0E00               	movlw	0
  4537  001B6E  ECD1  F014         	call	_RB7_ISR
  4538  001B72                     i2l1171:
  4539                           
  4540                           ;MCAL/INTERRUPT/mcal_interrupt_manager.c: 107:     if((1==PIE1bits.ADIE)&&(1==PIR1bits.A
      +                          DIF))
  4541  001B72  AC9D               	btfss	157,6,c	;volatile
  4542  001B74  EFBE  F00D         	goto	i2u690_41
  4543  001B78  EFC0  F00D         	goto	i2u690_40
  4544  001B7C                     i2u690_41:
  4545  001B7C  EFC9  F00D         	goto	i2l1173
  4546  001B80                     i2u690_40:
  4547  001B80  AC9E               	btfss	158,6,c	;volatile
  4548  001B82  EFC5  F00D         	goto	i2u691_41
  4549  001B86  EFC7  F00D         	goto	i2u691_40
  4550  001B8A                     i2u691_41:
  4551  001B8A  EFC9  F00D         	goto	i2l1173
  4552  001B8E                     i2u691_40:
  4553  001B8E                     
  4554                           ;MCAL/INTERRUPT/mcal_interrupt_manager.c: 108:     {;MCAL/INTERRUPT/mcal_interrupt_manag
      +                          er.c: 109:         ADC_ISR();
  4555  001B8E  EC2F  F015         	call	_ADC_ISR	;wreg free
  4556  001B92                     i2l1173:
  4557                           
  4558                           ;MCAL/INTERRUPT/mcal_interrupt_manager.c: 112:      if((1==INTCONbits.T0IE)&&(1==INTCONb
      +                          its.T0IF))
  4559  001B92  AAF2               	btfss	242,5,c	;volatile
  4560  001B94  EFCE  F00D         	goto	i2u692_41
  4561  001B98  EFD0  F00D         	goto	i2u692_40
  4562  001B9C                     i2u692_41:
  4563  001B9C  EFD9  F00D         	goto	i2l1175
  4564  001BA0                     i2u692_40:
  4565  001BA0  A4F2               	btfss	242,2,c	;volatile
  4566  001BA2  EFD5  F00D         	goto	i2u693_41
  4567  001BA6  EFD7  F00D         	goto	i2u693_40
  4568  001BAA                     i2u693_41:
  4569  001BAA  EFD9  F00D         	goto	i2l1175
  4570  001BAE                     i2u693_40:
  4571  001BAE                     
  4572                           ;MCAL/INTERRUPT/mcal_interrupt_manager.c: 113:     {;MCAL/INTERRUPT/mcal_interrupt_manag
      +                          er.c: 114:         TMR0_ISR();
  4573  001BAE  EC11  F015         	call	_TMR0_ISR	;wreg free
  4574  001BB2                     i2l1175:
  4575                           
  4576                           ;MCAL/INTERRUPT/mcal_interrupt_manager.c: 117:     if((1==PIE1bits.TMR1IE)&&(1==PIR1bits
      +                          .TMR1IF))
  4577  001BB2  A09D               	btfss	157,0,c	;volatile
  4578  001BB4  EFDE  F00D         	goto	i2u694_41
  4579  001BB8  EFE0  F00D         	goto	i2u694_40
  4580  001BBC                     i2u694_41:
  4581  001BBC  EFE9  F00D         	goto	i2l1177
  4582  001BC0                     i2u694_40:
  4583  001BC0  A09E               	btfss	158,0,c	;volatile
  4584  001BC2  EFE5  F00D         	goto	i2u695_41
  4585  001BC6  EFE7  F00D         	goto	i2u695_40
  4586  001BCA                     i2u695_41:
  4587  001BCA  EFE9  F00D         	goto	i2l1177
  4588  001BCE                     i2u695_40:
  4589  001BCE                     
  4590                           ;MCAL/INTERRUPT/mcal_interrupt_manager.c: 118:     {;MCAL/INTERRUPT/mcal_interrupt_manag
      +                          er.c: 119:         TMR1_ISR();
  4591  001BCE  EC0B  F015         	call	_TMR1_ISR	;wreg free
  4592  001BD2                     i2l1177:
  4593                           
  4594                           ;MCAL/INTERRUPT/mcal_interrupt_manager.c: 122:     if((1==PIE1bits.TMR2IE)&&(1==PIR1bits
      +                          .TMR2IF))
  4595  001BD2  A29D               	btfss	157,1,c	;volatile
  4596  001BD4  EFEE  F00D         	goto	i2u696_41
  4597  001BD8  EFF0  F00D         	goto	i2u696_40
  4598  001BDC                     i2u696_41:
  4599  001BDC  EFF9  F00D         	goto	i2l1179
  4600  001BE0                     i2u696_40:
  4601  001BE0  A29E               	btfss	158,1,c	;volatile
  4602  001BE2  EFF5  F00D         	goto	i2u697_41
  4603  001BE6  EFF7  F00D         	goto	i2u697_40
  4604  001BEA                     i2u697_41:
  4605  001BEA  EFF9  F00D         	goto	i2l1179
  4606  001BEE                     i2u697_40:
  4607  001BEE                     
  4608                           ;MCAL/INTERRUPT/mcal_interrupt_manager.c: 123:     {;MCAL/INTERRUPT/mcal_interrupt_manag
      +                          er.c: 124:         TMR2_ISR();
  4609  001BEE  EC17  F015         	call	_TMR2_ISR	;wreg free
  4610  001BF2                     i2l1179:
  4611                           
  4612                           ;MCAL/INTERRUPT/mcal_interrupt_manager.c: 127:     if((1==PIE2bits.TMR3IE)&&(1==PIR2bits
      +                          .TMR3IF))
  4613  001BF2  A2A0               	btfss	160,1,c	;volatile
  4614  001BF4  EFFE  F00D         	goto	i2u698_41
  4615  001BF8  EF00  F00E         	goto	i2u698_40
  4616  001BFC                     i2u698_41:
  4617  001BFC  EF09  F00E         	goto	i2l1181
  4618  001C00                     i2u698_40:
  4619  001C00  A2A1               	btfss	161,1,c	;volatile
  4620  001C02  EF05  F00E         	goto	i2u699_41
  4621  001C06  EF07  F00E         	goto	i2u699_40
  4622  001C0A                     i2u699_41:
  4623  001C0A  EF09  F00E         	goto	i2l1181
  4624  001C0E                     i2u699_40:
  4625  001C0E                     
  4626                           ;MCAL/INTERRUPT/mcal_interrupt_manager.c: 128:     {;MCAL/INTERRUPT/mcal_interrupt_manag
      +                          er.c: 129:         TMR3_ISR();
  4627  001C0E  EC05  F015         	call	_TMR3_ISR	;wreg free
  4628  001C12                     i2l1181:
  4629                           
  4630                           ;MCAL/INTERRUPT/mcal_interrupt_manager.c: 132:     if((1==PIE1bits.CCP1IE)&&(1==PIR1bits
      +                          .CCP1IF))
  4631  001C12  A49D               	btfss	157,2,c	;volatile
  4632  001C14  EF0E  F00E         	goto	i2u700_41
  4633  001C18  EF10  F00E         	goto	i2u700_40
  4634  001C1C                     i2u700_41:
  4635  001C1C  EF19  F00E         	goto	i2l1183
  4636  001C20                     i2u700_40:
  4637  001C20  A49E               	btfss	158,2,c	;volatile
  4638  001C22  EF15  F00E         	goto	i2u701_41
  4639  001C26  EF17  F00E         	goto	i2u701_40
  4640  001C2A                     i2u701_41:
  4641  001C2A  EF19  F00E         	goto	i2l1183
  4642  001C2E                     i2u701_40:
  4643  001C2E                     
  4644                           ;MCAL/INTERRUPT/mcal_interrupt_manager.c: 133:     {;MCAL/INTERRUPT/mcal_interrupt_manag
      +                          er.c: 134:         CCP1_ISR();
  4645  001C2E  EC2D  F015         	call	_CCP1_ISR	;wreg free
  4646  001C32                     i2l1183:
  4647                           
  4648                           ;MCAL/INTERRUPT/mcal_interrupt_manager.c: 137:     if((1==PIE1bits.TXIE)&&(1==PIR1bits.T
      +                          XIF))
  4649  001C32  A89D               	btfss	157,4,c	;volatile
  4650  001C34  EF1E  F00E         	goto	i2u702_41
  4651  001C38  EF20  F00E         	goto	i2u702_40
  4652  001C3C                     i2u702_41:
  4653  001C3C  EF29  F00E         	goto	i2l1185
  4654  001C40                     i2u702_40:
  4655  001C40  A89E               	btfss	158,4,c	;volatile
  4656  001C42  EF25  F00E         	goto	i2u703_41
  4657  001C46  EF27  F00E         	goto	i2u703_40
  4658  001C4A                     i2u703_41:
  4659  001C4A  EF29  F00E         	goto	i2l1185
  4660  001C4E                     i2u703_40:
  4661  001C4E                     
  4662                           ;MCAL/INTERRUPT/mcal_interrupt_manager.c: 138:     {;MCAL/INTERRUPT/mcal_interrupt_manag
      +                          er.c: 139:         EUSART_TX_ISR();
  4663  001C4E  EC2B  F015         	call	_EUSART_TX_ISR	;wreg free
  4664  001C52                     i2l1185:
  4665                           
  4666                           ;MCAL/INTERRUPT/mcal_interrupt_manager.c: 142:     if((1==PIE1bits.RCIE)&&(1==PIR1bits.R
      +                          CIF))
  4667  001C52  AA9D               	btfss	157,5,c	;volatile
  4668  001C54  EF2E  F00E         	goto	i2u704_41
  4669  001C58  EF30  F00E         	goto	i2u704_40
  4670  001C5C                     i2u704_41:
  4671  001C5C  EF39  F00E         	goto	i2l1187
  4672  001C60                     i2u704_40:
  4673  001C60  AA9E               	btfss	158,5,c	;volatile
  4674  001C62  EF35  F00E         	goto	i2u705_41
  4675  001C66  EF37  F00E         	goto	i2u705_40
  4676  001C6A                     i2u705_41:
  4677  001C6A  EF39  F00E         	goto	i2l1187
  4678  001C6E                     i2u705_40:
  4679  001C6E                     
  4680                           ;MCAL/INTERRUPT/mcal_interrupt_manager.c: 143:     {;MCAL/INTERRUPT/mcal_interrupt_manag
      +                          er.c: 144:         EUSART_RX_ISR();
  4681  001C6E  ECC3  F014         	call	_EUSART_RX_ISR	;wreg free
  4682  001C72                     i2l1187:
  4683                           
  4684                           ;MCAL/INTERRUPT/mcal_interrupt_manager.c: 147:     if((1==PIE1bits.SSPIE)&&(1==PIR1bits.
      +                          SSPIF))
  4685  001C72  A69D               	btfss	157,3,c	;volatile
  4686  001C74  EF3E  F00E         	goto	i2u706_41
  4687  001C78  EF40  F00E         	goto	i2u706_40
  4688  001C7C                     i2u706_41:
  4689  001C7C  EF49  F00E         	goto	i2l1189
  4690  001C80                     i2u706_40:
  4691  001C80  A69E               	btfss	158,3,c	;volatile
  4692  001C82  EF45  F00E         	goto	i2u707_41
  4693  001C86  EF47  F00E         	goto	i2u707_40
  4694  001C8A                     i2u707_41:
  4695  001C8A  EF49  F00E         	goto	i2l1189
  4696  001C8E                     i2u707_40:
  4697  001C8E                     
  4698                           ;MCAL/INTERRUPT/mcal_interrupt_manager.c: 148:     {;MCAL/INTERRUPT/mcal_interrupt_manag
      +                          er.c: 149:         I2C_ISR();
  4699  001C8E  EC27  F015         	call	_I2C_ISR	;wreg free
  4700  001C92                     i2l1189:
  4701                           
  4702                           ;MCAL/INTERRUPT/mcal_interrupt_manager.c: 152:     if((1==PIE2bits.BCLIE)&&(1==PIR2bits.
      +                          BCLIF))
  4703  001C92  A6A0               	btfss	160,3,c	;volatile
  4704  001C94  EF4E  F00E         	goto	i2u708_41
  4705  001C98  EF50  F00E         	goto	i2u708_40
  4706  001C9C                     i2u708_41:
  4707  001C9C  EF59  F00E         	goto	i2l1192
  4708  001CA0                     i2u708_40:
  4709  001CA0  A6A1               	btfss	161,3,c	;volatile
  4710  001CA2  EF55  F00E         	goto	i2u709_41
  4711  001CA6  EF57  F00E         	goto	i2u709_40
  4712  001CAA                     i2u709_41:
  4713  001CAA  EF59  F00E         	goto	i2l1192
  4714  001CAE                     i2u709_40:
  4715  001CAE                     
  4716                           ;MCAL/INTERRUPT/mcal_interrupt_manager.c: 153:     {;MCAL/INTERRUPT/mcal_interrupt_manag
      +                          er.c: 154:         I2C_BC_ISR();
  4717  001CAE  EC29  F015         	call	_I2C_BC_ISR	;wreg free
  4718  001CB2                     i2l1192:
  4719  001CB2  927C               	bcf	int$flags,1,c	;clear compiler interrupt flag (level 2)
  4720  001CB4  0011               	retfie		f
  4721  001CB6                     __end_of_Interrupt_Manager:
  4722                           	callstack 0
  4723                           
  4724 ;; *************** function _TMR3_ISR *****************
  4725 ;; Defined at:
  4726 ;;		line 121 in file "MCAL/TIMER3/mcal_timer3.c"
  4727 ;; Parameters:    Size  Location     Type
  4728 ;;		None
  4729 ;; Auto vars:     Size  Location     Type
  4730 ;;		None
  4731 ;; Return value:  Size  Location     Type
  4732 ;;                  1    wreg      void 
  4733 ;; Registers used:
  4734 ;;		wreg, status,2
  4735 ;; Tracked objects:
  4736 ;;		On entry : 0/0
  4737 ;;		On exit  : 0/0
  4738 ;;		Unchanged: 0/0
  4739 ;; Data sizes:     COMRAM   BANK0   BANK1   BANK2   BANK3   BANK4   BANK5   BANK6   BANK7   BANK8   BANK9  BANK10  BANK1
      +1  BANK12  BANK13  BANK14  BANK15
  4740 ;;      Params:         0       0       0       0       0       0       0       0       0       0       0       0       
      +0       0       0       0       0
  4741 ;;      Locals:         0       0       0       0       0       0       0       0       0       0       0       0       
      +0       0       0       0       0
  4742 ;;      Temps:          0       0       0       0       0       0       0       0       0       0       0       0       
      +0       0       0       0       0
  4743 ;;      Totals:         0       0       0       0       0       0       0       0       0       0       0       0       
      +0       0       0       0       0
  4744 ;;Total ram usage:        0 bytes
  4745 ;; Hardware stack levels used:    1
  4746 ;; This function calls:
  4747 ;;		Nothing
  4748 ;; This function is called by:
  4749 ;;		_Interrupt_Manager
  4750 ;; This function uses a non-reentrant model
  4751 ;;
  4752                           
  4753                           	psect	text19
  4754  002A0A                     __ptext19:
  4755                           	callstack 0
  4756  002A0A                     _TMR3_ISR:
  4757                           	callstack 24
  4758  002A0A                     
  4759                           ;MCAL/TIMER3/mcal_timer3.c: 123:    (PIR2bits.TMR3IF=0);
  4760  002A0A  92A1               	bcf	161,1,c	;volatile
  4761  002A0C                     
  4762                           ;MCAL/TIMER3/mcal_timer3.c: 124:    TMR3H=Timer3_PreLoaded_Value_Store>>8;
  4763  002A0C  5053               	movf	(_Timer3_PreLoaded_Value_Store+1)^0,w,c
  4764  002A0E  6EB3               	movwf	179,c	;volatile
  4765  002A10                     
  4766                           ;MCAL/TIMER3/mcal_timer3.c: 125:    TMR3L=(uint8)Timer3_PreLoaded_Value_Store;
  4767  002A10  C052  FFB2         	movff	_Timer3_PreLoaded_Value_Store,4018	;volatile
  4768  002A14  0012               	return		;funcret
  4769  002A16                     __end_of_TMR3_ISR:
  4770                           	callstack 0
  4771                           
  4772 ;; *************** function _TMR2_ISR *****************
  4773 ;; Defined at:
  4774 ;;		line 111 in file "MCAL/TIMER2/mcal_timer2.c"
  4775 ;; Parameters:    Size  Location     Type
  4776 ;;		None
  4777 ;; Auto vars:     Size  Location     Type
  4778 ;;		None
  4779 ;; Return value:  Size  Location     Type
  4780 ;;                  1    wreg      void 
  4781 ;; Registers used:
  4782 ;;		None
  4783 ;; Tracked objects:
  4784 ;;		On entry : 0/0
  4785 ;;		On exit  : 0/0
  4786 ;;		Unchanged: 0/0
  4787 ;; Data sizes:     COMRAM   BANK0   BANK1   BANK2   BANK3   BANK4   BANK5   BANK6   BANK7   BANK8   BANK9  BANK10  BANK1
      +1  BANK12  BANK13  BANK14  BANK15
  4788 ;;      Params:         0       0       0       0       0       0       0       0       0       0       0       0       
      +0       0       0       0       0
  4789 ;;      Locals:         0       0       0       0       0       0       0       0       0       0       0       0       
      +0       0       0       0       0
  4790 ;;      Temps:          0       0       0       0       0       0       0       0       0       0       0       0       
      +0       0       0       0       0
  4791 ;;      Totals:         0       0       0       0       0       0       0       0       0       0       0       0       
      +0       0       0       0       0
  4792 ;;Total ram usage:        0 bytes
  4793 ;; Hardware stack levels used:    1
  4794 ;; This function calls:
  4795 ;;		Nothing
  4796 ;; This function is called by:
  4797 ;;		_Interrupt_Manager
  4798 ;; This function uses a non-reentrant model
  4799 ;;
  4800                           
  4801                           	psect	text20
  4802  002A2E                     __ptext20:
  4803                           	callstack 0
  4804  002A2E                     _TMR2_ISR:
  4805                           	callstack 24
  4806  002A2E                     
  4807                           ;MCAL/TIMER2/mcal_timer2.c: 113:    (PIR1bits.TMR2IF=0);
  4808  002A2E  929E               	bcf	158,1,c	;volatile
  4809                           
  4810                           ;MCAL/TIMER2/mcal_timer2.c: 114:    TMR2=Timer2_PreLoaded_Value_Store;
  4811  002A30  C06F  FFCC         	movff	_Timer2_PreLoaded_Value_Store,4044	;volatile
  4812  002A34  0012               	return		;funcret
  4813  002A36                     __end_of_TMR2_ISR:
  4814                           	callstack 0
  4815                           
  4816 ;; *************** function _TMR1_ISR *****************
  4817 ;; Defined at:
  4818 ;;		line 124 in file "MCAL/TIMER1/mcal_timer1.c"
  4819 ;; Parameters:    Size  Location     Type
  4820 ;;		None
  4821 ;; Auto vars:     Size  Location     Type
  4822 ;;		None
  4823 ;; Return value:  Size  Location     Type
  4824 ;;                  1    wreg      void 
  4825 ;; Registers used:
  4826 ;;		wreg, status,2
  4827 ;; Tracked objects:
  4828 ;;		On entry : 0/0
  4829 ;;		On exit  : 0/0
  4830 ;;		Unchanged: 0/0
  4831 ;; Data sizes:     COMRAM   BANK0   BANK1   BANK2   BANK3   BANK4   BANK5   BANK6   BANK7   BANK8   BANK9  BANK10  BANK1
      +1  BANK12  BANK13  BANK14  BANK15
  4832 ;;      Params:         0       0       0       0       0       0       0       0       0       0       0       0       
      +0       0       0       0       0
  4833 ;;      Locals:         0       0       0       0       0       0       0       0       0       0       0       0       
      +0       0       0       0       0
  4834 ;;      Temps:          0       0       0       0       0       0       0       0       0       0       0       0       
      +0       0       0       0       0
  4835 ;;      Totals:         0       0       0       0       0       0       0       0       0       0       0       0       
      +0       0       0       0       0
  4836 ;;Total ram usage:        0 bytes
  4837 ;; Hardware stack levels used:    1
  4838 ;; This function calls:
  4839 ;;		Nothing
  4840 ;; This function is called by:
  4841 ;;		_Interrupt_Manager
  4842 ;; This function uses a non-reentrant model
  4843 ;;
  4844                           
  4845                           	psect	text21
  4846  002A16                     __ptext21:
  4847                           	callstack 0
  4848  002A16                     _TMR1_ISR:
  4849                           	callstack 24
  4850  002A16                     
  4851                           ;MCAL/TIMER1/mcal_timer1.c: 126:    (PIR1bits.TMR1IF=0);
  4852  002A16  909E               	bcf	158,0,c	;volatile
  4853  002A18                     
  4854                           ;MCAL/TIMER1/mcal_timer1.c: 127:    TMR1H=Timer1_PreLoaded_Value_Store>>8;
  4855  002A18  5055               	movf	(_Timer1_PreLoaded_Value_Store+1)^0,w,c
  4856  002A1A  6ECF               	movwf	207,c	;volatile
  4857  002A1C                     
  4858                           ;MCAL/TIMER1/mcal_timer1.c: 128:    TMR1L=(uint8)Timer1_PreLoaded_Value_Store;
  4859  002A1C  C054  FFCE         	movff	_Timer1_PreLoaded_Value_Store,4046	;volatile
  4860  002A20  0012               	return		;funcret
  4861  002A22                     __end_of_TMR1_ISR:
  4862                           	callstack 0
  4863                           
  4864 ;; *************** function _TMR0_ISR *****************
  4865 ;; Defined at:
  4866 ;;		line 126 in file "MCAL/TIMER0/mcal_timer0.c"
  4867 ;; Parameters:    Size  Location     Type
  4868 ;;		None
  4869 ;; Auto vars:     Size  Location     Type
  4870 ;;		None
  4871 ;; Return value:  Size  Location     Type
  4872 ;;                  1    wreg      void 
  4873 ;; Registers used:
  4874 ;;		wreg, status,2
  4875 ;; Tracked objects:
  4876 ;;		On entry : 0/0
  4877 ;;		On exit  : 0/0
  4878 ;;		Unchanged: 0/0
  4879 ;; Data sizes:     COMRAM   BANK0   BANK1   BANK2   BANK3   BANK4   BANK5   BANK6   BANK7   BANK8   BANK9  BANK10  BANK1
      +1  BANK12  BANK13  BANK14  BANK15
  4880 ;;      Params:         0       0       0       0       0       0       0       0       0       0       0       0       
      +0       0       0       0       0
  4881 ;;      Locals:         0       0       0       0       0       0       0       0       0       0       0       0       
      +0       0       0       0       0
  4882 ;;      Temps:          0       0       0       0       0       0       0       0       0       0       0       0       
      +0       0       0       0       0
  4883 ;;      Totals:         0       0       0       0       0       0       0       0       0       0       0       0       
      +0       0       0       0       0
  4884 ;;Total ram usage:        0 bytes
  4885 ;; Hardware stack levels used:    1
  4886 ;; This function calls:
  4887 ;;		Nothing
  4888 ;; This function is called by:
  4889 ;;		_Interrupt_Manager
  4890 ;; This function uses a non-reentrant model
  4891 ;;
  4892                           
  4893                           	psect	text22
  4894  002A22                     __ptext22:
  4895                           	callstack 0
  4896  002A22                     _TMR0_ISR:
  4897                           	callstack 24
  4898  002A22                     
  4899                           ;MCAL/TIMER0/mcal_timer0.c: 128:    (INTCONbits.TMR0IF=0);
  4900  002A22  94F2               	bcf	242,2,c	;volatile
  4901  002A24                     
  4902                           ;MCAL/TIMER0/mcal_timer0.c: 129:    TMR0H=Timer0_PreLoaded_Value_Store>>8;
  4903  002A24  5057               	movf	(_Timer0_PreLoaded_Value_Store+1)^0,w,c
  4904  002A26  6ED7               	movwf	215,c	;volatile
  4905  002A28                     
  4906                           ;MCAL/TIMER0/mcal_timer0.c: 130:    TMR0L=(uint8)Timer0_PreLoaded_Value_Store;
  4907  002A28  C056  FFD6         	movff	_Timer0_PreLoaded_Value_Store,4054	;volatile
  4908  002A2C  0012               	return		;funcret
  4909  002A2E                     __end_of_TMR0_ISR:
  4910                           	callstack 0
  4911                           
  4912 ;; *************** function _RB7_ISR *****************
  4913 ;; Defined at:
  4914 ;;		line 675 in file "MCAL/INTERRUPT/mcal_external_interrupt.c"
  4915 ;; Parameters:    Size  Location     Type
  4916 ;;  RB7_source      1    wreg     unsigned char 
  4917 ;; Auto vars:     Size  Location     Type
  4918 ;;  RB7_source      1    0[COMRAM] unsigned char 
  4919 ;; Return value:  Size  Location     Type
  4920 ;;                  1    wreg      void 
  4921 ;; Registers used:
  4922 ;;		wreg, status,2, status,0
  4923 ;; Tracked objects:
  4924 ;;		On entry : 0/0
  4925 ;;		On exit  : 0/0
  4926 ;;		Unchanged: 0/0
  4927 ;; Data sizes:     COMRAM   BANK0   BANK1   BANK2   BANK3   BANK4   BANK5   BANK6   BANK7   BANK8   BANK9  BANK10  BANK1
      +1  BANK12  BANK13  BANK14  BANK15
  4928 ;;      Params:         0       0       0       0       0       0       0       0       0       0       0       0       
      +0       0       0       0       0
  4929 ;;      Locals:         1       0       0       0       0       0       0       0       0       0       0       0       
      +0       0       0       0       0
  4930 ;;      Temps:          0       0       0       0       0       0       0       0       0       0       0       0       
      +0       0       0       0       0
  4931 ;;      Totals:         1       0       0       0       0       0       0       0       0       0       0       0       
      +0       0       0       0       0
  4932 ;;Total ram usage:        1 bytes
  4933 ;; Hardware stack levels used:    1
  4934 ;; This function calls:
  4935 ;;		Nothing
  4936 ;; This function is called by:
  4937 ;;		_Interrupt_Manager
  4938 ;; This function uses a non-reentrant model
  4939 ;;
  4940                           
  4941                           	psect	text23
  4942  0029A2                     __ptext23:
  4943                           	callstack 0
  4944  0029A2                     _RB7_ISR:
  4945                           	callstack 24
  4946                           
  4947                           ;incstack = 0
  4948                           ;RB7_ISR@RB7_source stored from wreg
  4949  0029A2  6E01               	movwf	RB7_ISR@RB7_source^0,c
  4950  0029A4                     
  4951                           ;MCAL/INTERRUPT/mcal_external_interrupt.c: 675: void RB7_ISR(uint8 RB7_source);MCAL/INTE
      +                          RRUPT/mcal_external_interrupt.c: 676: {;MCAL/INTERRUPT/mcal_external_interrupt.c: 677:  
      +                             (INTCONbits.RBIF=0);
  4952  0029A4  90F2               	bcf	242,0,c	;volatile
  4953  0029A6                     
  4954                           ;MCAL/INTERRUPT/mcal_external_interrupt.c: 678:     if(1==RB7_source)
  4955  0029A6  0401               	decf	RB7_ISR@RB7_source^0,w,c
  4956  0029A8  A4D8               	btfss	status,2,c
  4957  0029AA  EFD9  F014         	goto	i2u566_41
  4958  0029AE  EFDB  F014         	goto	i2u566_40
  4959  0029B2                     i2u566_41:
  4960  0029B2  EFDD  F014         	goto	i2l6316
  4961  0029B6                     i2u566_40:
  4962  0029B6  EFDD  F014         	goto	i2l1089
  4963  0029BA                     i2l6316:
  4964  0029BA                     i2l1089:
  4965  0029BA  0012               	return		;funcret
  4966  0029BC                     __end_of_RB7_ISR:
  4967                           	callstack 0
  4968                           
  4969 ;; *************** function _RB6_ISR *****************
  4970 ;; Defined at:
  4971 ;;		line 661 in file "MCAL/INTERRUPT/mcal_external_interrupt.c"
  4972 ;; Parameters:    Size  Location     Type
  4973 ;;  RB6_source      1    wreg     unsigned char 
  4974 ;; Auto vars:     Size  Location     Type
  4975 ;;  RB6_source      1    0[COMRAM] unsigned char 
  4976 ;; Return value:  Size  Location     Type
  4977 ;;                  1    wreg      void 
  4978 ;; Registers used:
  4979 ;;		wreg, status,2, status,0
  4980 ;; Tracked objects:
  4981 ;;		On entry : 0/0
  4982 ;;		On exit  : 0/0
  4983 ;;		Unchanged: 0/0
  4984 ;; Data sizes:     COMRAM   BANK0   BANK1   BANK2   BANK3   BANK4   BANK5   BANK6   BANK7   BANK8   BANK9  BANK10  BANK1
      +1  BANK12  BANK13  BANK14  BANK15
  4985 ;;      Params:         0       0       0       0       0       0       0       0       0       0       0       0       
      +0       0       0       0       0
  4986 ;;      Locals:         1       0       0       0       0       0       0       0       0       0       0       0       
      +0       0       0       0       0
  4987 ;;      Temps:          0       0       0       0       0       0       0       0       0       0       0       0       
      +0       0       0       0       0
  4988 ;;      Totals:         1       0       0       0       0       0       0       0       0       0       0       0       
      +0       0       0       0       0
  4989 ;;Total ram usage:        1 bytes
  4990 ;; Hardware stack levels used:    1
  4991 ;; This function calls:
  4992 ;;		Nothing
  4993 ;; This function is called by:
  4994 ;;		_Interrupt_Manager
  4995 ;; This function uses a non-reentrant model
  4996 ;;
  4997                           
  4998                           	psect	text24
  4999  0029BC                     __ptext24:
  5000                           	callstack 0
  5001  0029BC                     _RB6_ISR:
  5002                           	callstack 24
  5003                           
  5004                           ;incstack = 0
  5005                           ;RB6_ISR@RB6_source stored from wreg
  5006  0029BC  6E01               	movwf	RB6_ISR@RB6_source^0,c
  5007  0029BE                     
  5008                           ;MCAL/INTERRUPT/mcal_external_interrupt.c: 661: void RB6_ISR(uint8 RB6_source);MCAL/INTE
      +                          RRUPT/mcal_external_interrupt.c: 662: {;MCAL/INTERRUPT/mcal_external_interrupt.c: 663:  
      +                             (INTCONbits.RBIF=0);
  5009  0029BE  90F2               	bcf	242,0,c	;volatile
  5010  0029C0                     
  5011                           ;MCAL/INTERRUPT/mcal_external_interrupt.c: 664:     if(1==RB6_source)
  5012  0029C0  0401               	decf	RB6_ISR@RB6_source^0,w,c
  5013  0029C2  A4D8               	btfss	status,2,c
  5014  0029C4  EFE6  F014         	goto	i2u565_41
  5015  0029C8  EFE8  F014         	goto	i2u565_40
  5016  0029CC                     i2u565_41:
  5017  0029CC  EFEA  F014         	goto	i2l6306
  5018  0029D0                     i2u565_40:
  5019  0029D0  EFEA  F014         	goto	i2l1080
  5020  0029D4                     i2l6306:
  5021  0029D4                     i2l1080:
  5022  0029D4  0012               	return		;funcret
  5023  0029D6                     __end_of_RB6_ISR:
  5024                           	callstack 0
  5025                           
  5026 ;; *************** function _RB5_ISR *****************
  5027 ;; Defined at:
  5028 ;;		line 647 in file "MCAL/INTERRUPT/mcal_external_interrupt.c"
  5029 ;; Parameters:    Size  Location     Type
  5030 ;;  RB5_source      1    wreg     unsigned char 
  5031 ;; Auto vars:     Size  Location     Type
  5032 ;;  RB5_source      1    0[COMRAM] unsigned char 
  5033 ;; Return value:  Size  Location     Type
  5034 ;;                  1    wreg      void 
  5035 ;; Registers used:
  5036 ;;		wreg, status,2, status,0
  5037 ;; Tracked objects:
  5038 ;;		On entry : 0/0
  5039 ;;		On exit  : 0/0
  5040 ;;		Unchanged: 0/0
  5041 ;; Data sizes:     COMRAM   BANK0   BANK1   BANK2   BANK3   BANK4   BANK5   BANK6   BANK7   BANK8   BANK9  BANK10  BANK1
      +1  BANK12  BANK13  BANK14  BANK15
  5042 ;;      Params:         0       0       0       0       0       0       0       0       0       0       0       0       
      +0       0       0       0       0
  5043 ;;      Locals:         1       0       0       0       0       0       0       0       0       0       0       0       
      +0       0       0       0       0
  5044 ;;      Temps:          0       0       0       0       0       0       0       0       0       0       0       0       
      +0       0       0       0       0
  5045 ;;      Totals:         1       0       0       0       0       0       0       0       0       0       0       0       
      +0       0       0       0       0
  5046 ;;Total ram usage:        1 bytes
  5047 ;; Hardware stack levels used:    1
  5048 ;; This function calls:
  5049 ;;		Nothing
  5050 ;; This function is called by:
  5051 ;;		_Interrupt_Manager
  5052 ;; This function uses a non-reentrant model
  5053 ;;
  5054                           
  5055                           	psect	text25
  5056  0029D6                     __ptext25:
  5057                           	callstack 0
  5058  0029D6                     _RB5_ISR:
  5059                           	callstack 24
  5060                           
  5061                           ;incstack = 0
  5062                           ;RB5_ISR@RB5_source stored from wreg
  5063  0029D6  6E01               	movwf	RB5_ISR@RB5_source^0,c
  5064  0029D8                     
  5065                           ;MCAL/INTERRUPT/mcal_external_interrupt.c: 647: void RB5_ISR(uint8 RB5_source);MCAL/INTE
      +                          RRUPT/mcal_external_interrupt.c: 648: {;MCAL/INTERRUPT/mcal_external_interrupt.c: 649:  
      +                             (INTCONbits.RBIF=0);
  5066  0029D8  90F2               	bcf	242,0,c	;volatile
  5067  0029DA                     
  5068                           ;MCAL/INTERRUPT/mcal_external_interrupt.c: 650:      if(1==RB5_source)
  5069  0029DA  0401               	decf	RB5_ISR@RB5_source^0,w,c
  5070  0029DC  A4D8               	btfss	status,2,c
  5071  0029DE  EFF3  F014         	goto	i2u564_41
  5072  0029E2  EFF5  F014         	goto	i2u564_40
  5073  0029E6                     i2u564_41:
  5074  0029E6  EFF7  F014         	goto	i2l6296
  5075  0029EA                     i2u564_40:
  5076  0029EA  EFF7  F014         	goto	i2l1071
  5077  0029EE                     i2l6296:
  5078  0029EE                     i2l1071:
  5079  0029EE  0012               	return		;funcret
  5080  0029F0                     __end_of_RB5_ISR:
  5081                           	callstack 0
  5082                           
  5083 ;; *************** function _RB4_ISR *****************
  5084 ;; Defined at:
  5085 ;;		line 633 in file "MCAL/INTERRUPT/mcal_external_interrupt.c"
  5086 ;; Parameters:    Size  Location     Type
  5087 ;;  RB4_source      1    wreg     unsigned char 
  5088 ;; Auto vars:     Size  Location     Type
  5089 ;;  RB4_source      1    0[COMRAM] unsigned char 
  5090 ;; Return value:  Size  Location     Type
  5091 ;;                  1    wreg      void 
  5092 ;; Registers used:
  5093 ;;		wreg, status,2, status,0
  5094 ;; Tracked objects:
  5095 ;;		On entry : 0/0
  5096 ;;		On exit  : 0/0
  5097 ;;		Unchanged: 0/0
  5098 ;; Data sizes:     COMRAM   BANK0   BANK1   BANK2   BANK3   BANK4   BANK5   BANK6   BANK7   BANK8   BANK9  BANK10  BANK1
      +1  BANK12  BANK13  BANK14  BANK15
  5099 ;;      Params:         0       0       0       0       0       0       0       0       0       0       0       0       
      +0       0       0       0       0
  5100 ;;      Locals:         1       0       0       0       0       0       0       0       0       0       0       0       
      +0       0       0       0       0
  5101 ;;      Temps:          0       0       0       0       0       0       0       0       0       0       0       0       
      +0       0       0       0       0
  5102 ;;      Totals:         1       0       0       0       0       0       0       0       0       0       0       0       
      +0       0       0       0       0
  5103 ;;Total ram usage:        1 bytes
  5104 ;; Hardware stack levels used:    1
  5105 ;; This function calls:
  5106 ;;		Nothing
  5107 ;; This function is called by:
  5108 ;;		_Interrupt_Manager
  5109 ;; This function uses a non-reentrant model
  5110 ;;
  5111                           
  5112                           	psect	text26
  5113  0029F0                     __ptext26:
  5114                           	callstack 0
  5115  0029F0                     _RB4_ISR:
  5116                           	callstack 24
  5117                           
  5118                           ;incstack = 0
  5119                           ;RB4_ISR@RB4_source stored from wreg
  5120  0029F0  6E01               	movwf	RB4_ISR@RB4_source^0,c
  5121  0029F2                     
  5122                           ;MCAL/INTERRUPT/mcal_external_interrupt.c: 633: void RB4_ISR(uint8 RB4_source);MCAL/INTE
      +                          RRUPT/mcal_external_interrupt.c: 634: {;MCAL/INTERRUPT/mcal_external_interrupt.c: 635:  
      +                             (INTCONbits.RBIF=0);
  5123  0029F2  90F2               	bcf	242,0,c	;volatile
  5124  0029F4                     
  5125                           ;MCAL/INTERRUPT/mcal_external_interrupt.c: 636:     if(1==RB4_source)
  5126  0029F4  0401               	decf	RB4_ISR@RB4_source^0,w,c
  5127  0029F6  A4D8               	btfss	status,2,c
  5128  0029F8  EF00  F015         	goto	i2u159_41
  5129  0029FC  EF02  F015         	goto	i2u159_40
  5130  002A00                     i2u159_41:
  5131  002A00  EF04  F015         	goto	i2l3380
  5132  002A04                     i2u159_40:
  5133  002A04  EF04  F015         	goto	i2l1062
  5134  002A08                     i2l3380:
  5135  002A08                     i2l1062:
  5136  002A08  0012               	return		;funcret
  5137  002A0A                     __end_of_RB4_ISR:
  5138                           	callstack 0
  5139                           
  5140 ;; *************** function _INT2_ISR *****************
  5141 ;; Defined at:
  5142 ;;		line 433 in file "MCAL/INTERRUPT/mcal_external_interrupt.c"
  5143 ;; Parameters:    Size  Location     Type
  5144 ;;		None
  5145 ;; Auto vars:     Size  Location     Type
  5146 ;;		None
  5147 ;; Return value:  Size  Location     Type
  5148 ;;                  1    wreg      void 
  5149 ;; Registers used:
  5150 ;;		None
  5151 ;; Tracked objects:
  5152 ;;		On entry : 0/0
  5153 ;;		On exit  : 0/0
  5154 ;;		Unchanged: 0/0
  5155 ;; Data sizes:     COMRAM   BANK0   BANK1   BANK2   BANK3   BANK4   BANK5   BANK6   BANK7   BANK8   BANK9  BANK10  BANK1
      +1  BANK12  BANK13  BANK14  BANK15
  5156 ;;      Params:         0       0       0       0       0       0       0       0       0       0       0       0       
      +0       0       0       0       0
  5157 ;;      Locals:         0       0       0       0       0       0       0       0       0       0       0       0       
      +0       0       0       0       0
  5158 ;;      Temps:          0       0       0       0       0       0       0       0       0       0       0       0       
      +0       0       0       0       0
  5159 ;;      Totals:         0       0       0       0       0       0       0       0       0       0       0       0       
      +0       0       0       0       0
  5160 ;;Total ram usage:        0 bytes
  5161 ;; Hardware stack levels used:    1
  5162 ;; This function calls:
  5163 ;;		Nothing
  5164 ;; This function is called by:
  5165 ;;		_Interrupt_Manager
  5166 ;; This function uses a non-reentrant model
  5167 ;;
  5168                           
  5169                           	psect	text27
  5170  002A42                     __ptext27:
  5171                           	callstack 0
  5172  002A42                     _INT2_ISR:
  5173                           	callstack 24
  5174  002A42                     
  5175                           ;MCAL/INTERRUPT/mcal_external_interrupt.c: 435:     (INTCON3bits.INT2F=0);
  5176  002A42  92F0               	bcf	240,1,c	;volatile
  5177  002A44  0012               	return		;funcret
  5178  002A46                     __end_of_INT2_ISR:
  5179                           	callstack 0
  5180                           
  5181 ;; *************** function _INT1_ISR *****************
  5182 ;; Defined at:
  5183 ;;		line 426 in file "MCAL/INTERRUPT/mcal_external_interrupt.c"
  5184 ;; Parameters:    Size  Location     Type
  5185 ;;		None
  5186 ;; Auto vars:     Size  Location     Type
  5187 ;;		None
  5188 ;; Return value:  Size  Location     Type
  5189 ;;                  1    wreg      void 
  5190 ;; Registers used:
  5191 ;;		None
  5192 ;; Tracked objects:
  5193 ;;		On entry : 0/0
  5194 ;;		On exit  : 0/0
  5195 ;;		Unchanged: 0/0
  5196 ;; Data sizes:     COMRAM   BANK0   BANK1   BANK2   BANK3   BANK4   BANK5   BANK6   BANK7   BANK8   BANK9  BANK10  BANK1
      +1  BANK12  BANK13  BANK14  BANK15
  5197 ;;      Params:         0       0       0       0       0       0       0       0       0       0       0       0       
      +0       0       0       0       0
  5198 ;;      Locals:         0       0       0       0       0       0       0       0       0       0       0       0       
      +0       0       0       0       0
  5199 ;;      Temps:          0       0       0       0       0       0       0       0       0       0       0       0       
      +0       0       0       0       0
  5200 ;;      Totals:         0       0       0       0       0       0       0       0       0       0       0       0       
      +0       0       0       0       0
  5201 ;;Total ram usage:        0 bytes
  5202 ;; Hardware stack levels used:    1
  5203 ;; This function calls:
  5204 ;;		Nothing
  5205 ;; This function is called by:
  5206 ;;		_Interrupt_Manager
  5207 ;; This function uses a non-reentrant model
  5208 ;;
  5209                           
  5210                           	psect	text28
  5211  002A46                     __ptext28:
  5212                           	callstack 0
  5213  002A46                     _INT1_ISR:
  5214                           	callstack 24
  5215  002A46                     
  5216                           ;MCAL/INTERRUPT/mcal_external_interrupt.c: 428:     (INTCON3bits.INT1F=0);
  5217  002A46  90F0               	bcf	240,0,c	;volatile
  5218  002A48  0012               	return		;funcret
  5219  002A4A                     __end_of_INT1_ISR:
  5220                           	callstack 0
  5221                           
  5222 ;; *************** function _INT0_ISR *****************
  5223 ;; Defined at:
  5224 ;;		line 420 in file "MCAL/INTERRUPT/mcal_external_interrupt.c"
  5225 ;; Parameters:    Size  Location     Type
  5226 ;;		None
  5227 ;; Auto vars:     Size  Location     Type
  5228 ;;		None
  5229 ;; Return value:  Size  Location     Type
  5230 ;;                  1    wreg      void 
  5231 ;; Registers used:
  5232 ;;		None
  5233 ;; Tracked objects:
  5234 ;;		On entry : 0/0
  5235 ;;		On exit  : 0/0
  5236 ;;		Unchanged: 0/0
  5237 ;; Data sizes:     COMRAM   BANK0   BANK1   BANK2   BANK3   BANK4   BANK5   BANK6   BANK7   BANK8   BANK9  BANK10  BANK1
      +1  BANK12  BANK13  BANK14  BANK15
  5238 ;;      Params:         0       0       0       0       0       0       0       0       0       0       0       0       
      +0       0       0       0       0
  5239 ;;      Locals:         0       0       0       0       0       0       0       0       0       0       0       0       
      +0       0       0       0       0
  5240 ;;      Temps:          0       0       0       0       0       0       0       0       0       0       0       0       
      +0       0       0       0       0
  5241 ;;      Totals:         0       0       0       0       0       0       0       0       0       0       0       0       
      +0       0       0       0       0
  5242 ;;Total ram usage:        0 bytes
  5243 ;; Hardware stack levels used:    1
  5244 ;; This function calls:
  5245 ;;		Nothing
  5246 ;; This function is called by:
  5247 ;;		_Interrupt_Manager
  5248 ;; This function uses a non-reentrant model
  5249 ;;
  5250                           
  5251                           	psect	text29
  5252  002A4A                     __ptext29:
  5253                           	callstack 0
  5254  002A4A                     _INT0_ISR:
  5255                           	callstack 24
  5256  002A4A                     
  5257                           ;MCAL/INTERRUPT/mcal_external_interrupt.c: 422:     (INTCONbits.INT0IF=0);
  5258  002A4A  92F2               	bcf	242,1,c	;volatile
  5259  002A4C  0012               	return		;funcret
  5260  002A4E                     __end_of_INT0_ISR:
  5261                           	callstack 0
  5262                           
  5263 ;; *************** function _I2C_ISR *****************
  5264 ;; Defined at:
  5265 ;;		line 288 in file "MCAL/I2C/mcal_i2c.c"
  5266 ;; Parameters:    Size  Location     Type
  5267 ;;		None
  5268 ;; Auto vars:     Size  Location     Type
  5269 ;;		None
  5270 ;; Return value:  Size  Location     Type
  5271 ;;                  1    wreg      void 
  5272 ;; Registers used:
  5273 ;;		None
  5274 ;; Tracked objects:
  5275 ;;		On entry : 0/0
  5276 ;;		On exit  : 0/0
  5277 ;;		Unchanged: 0/0
  5278 ;; Data sizes:     COMRAM   BANK0   BANK1   BANK2   BANK3   BANK4   BANK5   BANK6   BANK7   BANK8   BANK9  BANK10  BANK1
      +1  BANK12  BANK13  BANK14  BANK15
  5279 ;;      Params:         0       0       0       0       0       0       0       0       0       0       0       0       
      +0       0       0       0       0
  5280 ;;      Locals:         0       0       0       0       0       0       0       0       0       0       0       0       
      +0       0       0       0       0
  5281 ;;      Temps:          0       0       0       0       0       0       0       0       0       0       0       0       
      +0       0       0       0       0
  5282 ;;      Totals:         0       0       0       0       0       0       0       0       0       0       0       0       
      +0       0       0       0       0
  5283 ;;Total ram usage:        0 bytes
  5284 ;; Hardware stack levels used:    1
  5285 ;; This function calls:
  5286 ;;		Nothing
  5287 ;; This function is called by:
  5288 ;;		_Interrupt_Manager
  5289 ;; This function uses a non-reentrant model
  5290 ;;
  5291                           
  5292                           	psect	text30
  5293  002A4E                     __ptext30:
  5294                           	callstack 0
  5295  002A4E                     _I2C_ISR:
  5296                           	callstack 24
  5297  002A4E                     
  5298                           ;MCAL/I2C/mcal_i2c.c: 292:     (PIR1bits.SSPIF=0);
  5299  002A4E  969E               	bcf	158,3,c	;volatile
  5300  002A50  0012               	return		;funcret
  5301  002A52                     __end_of_I2C_ISR:
  5302                           	callstack 0
  5303                           
  5304 ;; *************** function _I2C_BC_ISR *****************
  5305 ;; Defined at:
  5306 ;;		line 300 in file "MCAL/I2C/mcal_i2c.c"
  5307 ;; Parameters:    Size  Location     Type
  5308 ;;		None
  5309 ;; Auto vars:     Size  Location     Type
  5310 ;;		None
  5311 ;; Return value:  Size  Location     Type
  5312 ;;                  1    wreg      void 
  5313 ;; Registers used:
  5314 ;;		None
  5315 ;; Tracked objects:
  5316 ;;		On entry : 0/0
  5317 ;;		On exit  : 0/0
  5318 ;;		Unchanged: 0/0
  5319 ;; Data sizes:     COMRAM   BANK0   BANK1   BANK2   BANK3   BANK4   BANK5   BANK6   BANK7   BANK8   BANK9  BANK10  BANK1
      +1  BANK12  BANK13  BANK14  BANK15
  5320 ;;      Params:         0       0       0       0       0       0       0       0       0       0       0       0       
      +0       0       0       0       0
  5321 ;;      Locals:         0       0       0       0       0       0       0       0       0       0       0       0       
      +0       0       0       0       0
  5322 ;;      Temps:          0       0       0       0       0       0       0       0       0       0       0       0       
      +0       0       0       0       0
  5323 ;;      Totals:         0       0       0       0       0       0       0       0       0       0       0       0       
      +0       0       0       0       0
  5324 ;;Total ram usage:        0 bytes
  5325 ;; Hardware stack levels used:    1
  5326 ;; This function calls:
  5327 ;;		Nothing
  5328 ;; This function is called by:
  5329 ;;		_Interrupt_Manager
  5330 ;; This function uses a non-reentrant model
  5331 ;;
  5332                           
  5333                           	psect	text31
  5334  002A52                     __ptext31:
  5335                           	callstack 0
  5336  002A52                     _I2C_BC_ISR:
  5337                           	callstack 24
  5338  002A52                     
  5339                           ;MCAL/I2C/mcal_i2c.c: 303:     (PIR2bits.BCLIF=0);
  5340  002A52  96A1               	bcf	161,3,c	;volatile
  5341  002A54  0012               	return		;funcret
  5342  002A56                     __end_of_I2C_BC_ISR:
  5343                           	callstack 0
  5344                           
  5345 ;; *************** function _EUSART_TX_ISR *****************
  5346 ;; Defined at:
  5347 ;;		line 349 in file "MCAL/USART/mcal_usart.c"
  5348 ;; Parameters:    Size  Location     Type
  5349 ;;		None
  5350 ;; Auto vars:     Size  Location     Type
  5351 ;;		None
  5352 ;; Return value:  Size  Location     Type
  5353 ;;                  1    wreg      void 
  5354 ;; Registers used:
  5355 ;;		None
  5356 ;; Tracked objects:
  5357 ;;		On entry : 0/0
  5358 ;;		On exit  : 0/0
  5359 ;;		Unchanged: 0/0
  5360 ;; Data sizes:     COMRAM   BANK0   BANK1   BANK2   BANK3   BANK4   BANK5   BANK6   BANK7   BANK8   BANK9  BANK10  BANK1
      +1  BANK12  BANK13  BANK14  BANK15
  5361 ;;      Params:         0       0       0       0       0       0       0       0       0       0       0       0       
      +0       0       0       0       0
  5362 ;;      Locals:         0       0       0       0       0       0       0       0       0       0       0       0       
      +0       0       0       0       0
  5363 ;;      Temps:          0       0       0       0       0       0       0       0       0       0       0       0       
      +0       0       0       0       0
  5364 ;;      Totals:         0       0       0       0       0       0       0       0       0       0       0       0       
      +0       0       0       0       0
  5365 ;;Total ram usage:        0 bytes
  5366 ;; Hardware stack levels used:    1
  5367 ;; This function calls:
  5368 ;;		Nothing
  5369 ;; This function is called by:
  5370 ;;		_Interrupt_Manager
  5371 ;; This function uses a non-reentrant model
  5372 ;;
  5373                           
  5374                           	psect	text32
  5375  002A56                     __ptext32:
  5376                           	callstack 0
  5377  002A56                     _EUSART_TX_ISR:
  5378                           	callstack 24
  5379  002A56                     
  5380                           ;MCAL/USART/mcal_usart.c: 351:     (PIE1bits.TXIE=0);
  5381  002A56  989D               	bcf	157,4,c	;volatile
  5382  002A58  0012               	return		;funcret
  5383  002A5A                     __end_of_EUSART_TX_ISR:
  5384                           	callstack 0
  5385                           
  5386 ;; *************** function _EUSART_RX_ISR *****************
  5387 ;; Defined at:
  5388 ;;		line 358 in file "MCAL/USART/mcal_usart.c"
  5389 ;; Parameters:    Size  Location     Type
  5390 ;;		None
  5391 ;; Auto vars:     Size  Location     Type
  5392 ;;  temp_read       2    0        unsigned short 
  5393 ;; Return value:  Size  Location     Type
  5394 ;;                  1    wreg      void 
  5395 ;; Registers used:
  5396 ;;		wreg, status,2, status,0
  5397 ;; Tracked objects:
  5398 ;;		On entry : 0/0
  5399 ;;		On exit  : 0/0
  5400 ;;		Unchanged: 0/0
  5401 ;; Data sizes:     COMRAM   BANK0   BANK1   BANK2   BANK3   BANK4   BANK5   BANK6   BANK7   BANK8   BANK9  BANK10  BANK1
      +1  BANK12  BANK13  BANK14  BANK15
  5402 ;;      Params:         0       0       0       0       0       0       0       0       0       0       0       0       
      +0       0       0       0       0
  5403 ;;      Locals:         2       0       0       0       0       0       0       0       0       0       0       0       
      +0       0       0       0       0
  5404 ;;      Temps:          0       0       0       0       0       0       0       0       0       0       0       0       
      +0       0       0       0       0
  5405 ;;      Totals:         2       0       0       0       0       0       0       0       0       0       0       0       
      +0       0       0       0       0
  5406 ;;Total ram usage:        2 bytes
  5407 ;; Hardware stack levels used:    1
  5408 ;; This function calls:
  5409 ;;		Nothing
  5410 ;; This function is called by:
  5411 ;;		_Interrupt_Manager
  5412 ;; This function uses a non-reentrant model
  5413 ;;
  5414                           
  5415                           	psect	text33
  5416  002986                     __ptext33:
  5417                           	callstack 0
  5418  002986                     _EUSART_RX_ISR:
  5419                           	callstack 24
  5420  002986                     
  5421                           ;MCAL/USART/mcal_usart.c: 361:     {;MCAL/USART/mcal_usart.c: 363:         EUSART_RX_Int
      +                          errupt_Handler();
  5422  002986  0100               	movlb	0	; () banked
  5423  002988  51CF               	movf	_EUSART_RX_Interrupt_Handler& (0+255),w,b
  5424  00298A  11D0               	iorwf	(_EUSART_RX_Interrupt_Handler+1)& (0+255),w,b
  5425  00298C  B4D8               	btfsc	status,2,c
  5426  00298E  EFCB  F014         	goto	i2u567_41
  5427  002992  EFCD  F014         	goto	i2u567_40
  5428  002996                     i2u567_41:
  5429  002996  EFD0  F014         	goto	i2l6358
  5430  00299A                     i2u567_40:
  5431  00299A                     
  5432                           ; BSR set to: 0
  5433  00299A  50AE               	movf	174,w,c	;volatile
  5434                           
  5435                           ;MCAL/USART/mcal_usart.c: 365:     }
  5436  00299C  EFD0  F014         	goto	i2l1596
  5437  0029A0                     i2l6358:
  5438  0029A0                     i2l1596:
  5439                           
  5440                           ; BSR set to: 0
  5441  0029A0  0012               	return		;funcret
  5442  0029A2                     __end_of_EUSART_RX_ISR:
  5443                           	callstack 0
  5444                           
  5445 ;; *************** function _CCP1_ISR *****************
  5446 ;; Defined at:
  5447 ;;		line 238 in file "MCAL/CCP1/mcal_ccp1.c"
  5448 ;; Parameters:    Size  Location     Type
  5449 ;;		None
  5450 ;; Auto vars:     Size  Location     Type
  5451 ;;		None
  5452 ;; Return value:  Size  Location     Type
  5453 ;;                  1    wreg      void 
  5454 ;; Registers used:
  5455 ;;		None
  5456 ;; Tracked objects:
  5457 ;;		On entry : 0/0
  5458 ;;		On exit  : 0/0
  5459 ;;		Unchanged: 0/0
  5460 ;; Data sizes:     COMRAM   BANK0   BANK1   BANK2   BANK3   BANK4   BANK5   BANK6   BANK7   BANK8   BANK9  BANK10  BANK1
      +1  BANK12  BANK13  BANK14  BANK15
  5461 ;;      Params:         0       0       0       0       0       0       0       0       0       0       0       0       
      +0       0       0       0       0
  5462 ;;      Locals:         0       0       0       0       0       0       0       0       0       0       0       0       
      +0       0       0       0       0
  5463 ;;      Temps:          0       0       0       0       0       0       0       0       0       0       0       0       
      +0       0       0       0       0
  5464 ;;      Totals:         0       0       0       0       0       0       0       0       0       0       0       0       
      +0       0       0       0       0
  5465 ;;Total ram usage:        0 bytes
  5466 ;; Hardware stack levels used:    1
  5467 ;; This function calls:
  5468 ;;		Nothing
  5469 ;; This function is called by:
  5470 ;;		_Interrupt_Manager
  5471 ;; This function uses a non-reentrant model
  5472 ;;
  5473                           
  5474                           	psect	text34
  5475  002A5A                     __ptext34:
  5476                           	callstack 0
  5477  002A5A                     _CCP1_ISR:
  5478                           	callstack 24
  5479  002A5A                     
  5480                           ;MCAL/CCP1/mcal_ccp1.c: 240:    (PIR1bits.CCP1IF=0);
  5481  002A5A  949E               	bcf	158,2,c	;volatile
  5482  002A5C  0012               	return		;funcret
  5483  002A5E                     __end_of_CCP1_ISR:
  5484                           	callstack 0
  5485                           
  5486 ;; *************** function _ADC_ISR *****************
  5487 ;; Defined at:
  5488 ;;		line 325 in file "MCAL/ADC/mcal_adc.c"
  5489 ;; Parameters:    Size  Location     Type
  5490 ;;		None
  5491 ;; Auto vars:     Size  Location     Type
  5492 ;;		None
  5493 ;; Return value:  Size  Location     Type
  5494 ;;                  1    wreg      void 
  5495 ;; Registers used:
  5496 ;;		None
  5497 ;; Tracked objects:
  5498 ;;		On entry : 0/0
  5499 ;;		On exit  : 0/0
  5500 ;;		Unchanged: 0/0
  5501 ;; Data sizes:     COMRAM   BANK0   BANK1   BANK2   BANK3   BANK4   BANK5   BANK6   BANK7   BANK8   BANK9  BANK10  BANK1
      +1  BANK12  BANK13  BANK14  BANK15
  5502 ;;      Params:         0       0       0       0       0       0       0       0       0       0       0       0       
      +0       0       0       0       0
  5503 ;;      Locals:         0       0       0       0       0       0       0       0       0       0       0       0       
      +0       0       0       0       0
  5504 ;;      Temps:          0       0       0       0       0       0       0       0       0       0       0       0       
      +0       0       0       0       0
  5505 ;;      Totals:         0       0       0       0       0       0       0       0       0       0       0       0       
      +0       0       0       0       0
  5506 ;;Total ram usage:        0 bytes
  5507 ;; Hardware stack levels used:    1
  5508 ;; This function calls:
  5509 ;;		Nothing
  5510 ;; This function is called by:
  5511 ;;		_Interrupt_Manager
  5512 ;; This function uses a non-reentrant model
  5513 ;;
  5514                           
  5515                           	psect	text35
  5516  002A5E                     __ptext35:
  5517                           	callstack 0
  5518  002A5E                     _ADC_ISR:
  5519                           	callstack 24
  5520  002A5E                     
  5521                           ;MCAL/ADC/mcal_adc.c: 327:    (PIR1bits.ADIF=0);
  5522  002A5E  9C9E               	bcf	158,6,c	;volatile
  5523  002A60  0012               	return		;funcret
  5524  002A62                     __end_of_ADC_ISR:
  5525                           	callstack 0
  5526                           
  5527                           	psect	rparam
  5528  0000                     
  5529                           	psect	temp
  5530  00007C                     btemp:
  5531                           	callstack 0
  5532  00007C                     	ds	1
  5533  0000                     int$flags	set	btemp
  5534  0000                     wtemp8	set	btemp+1
  5535  0000                     ttemp5	set	btemp+1
  5536  0000                     ttemp6	set	btemp+4
  5537  0000                     ttemp7	set	btemp+8
  5538                           
  5539                           	psect	idloc
  5540                           
  5541                           ;Config register IDLOC0 @ 0x200000
  5542                           ;	unspecified, using default values
  5543  200000                     	org	2097152
  5544  200000  FF                 	db	255
  5545                           
  5546                           ;Config register IDLOC1 @ 0x200001
  5547                           ;	unspecified, using default values
  5548  200001                     	org	2097153
  5549  200001  FF                 	db	255
  5550                           
  5551                           ;Config register IDLOC2 @ 0x200002
  5552                           ;	unspecified, using default values
  5553  200002                     	org	2097154
  5554  200002  FF                 	db	255
  5555                           
  5556                           ;Config register IDLOC3 @ 0x200003
  5557                           ;	unspecified, using default values
  5558  200003                     	org	2097155
  5559  200003  FF                 	db	255
  5560                           
  5561                           ;Config register IDLOC4 @ 0x200004
  5562                           ;	unspecified, using default values
  5563  200004                     	org	2097156
  5564  200004  FF                 	db	255
  5565                           
  5566                           ;Config register IDLOC5 @ 0x200005
  5567                           ;	unspecified, using default values
  5568  200005                     	org	2097157
  5569  200005  FF                 	db	255
  5570                           
  5571                           ;Config register IDLOC6 @ 0x200006
  5572                           ;	unspecified, using default values
  5573  200006                     	org	2097158
  5574  200006  FF                 	db	255
  5575                           
  5576                           ;Config register IDLOC7 @ 0x200007
  5577                           ;	unspecified, using default values
  5578  200007                     	org	2097159
  5579  200007  FF                 	db	255
  5580                           
  5581                           	psect	config
  5582                           
  5583                           ; Padding undefined space
  5584  300000                     	org	3145728
  5585  300000  FF                 	db	255
  5586                           
  5587                           ;Config register CONFIG1H @ 0x300001
  5588                           ;	Oscillator Selection bits
  5589                           ;	OSC = HS, HS oscillator
  5590                           ;	Fail-Safe Clock Monitor Enable bit
  5591                           ;	FCMEN = OFF, Fail-Safe Clock Monitor disabled
  5592                           ;	Internal/External Oscillator Switchover bit
  5593                           ;	IESO = OFF, Oscillator Switchover mode disabled
  5594  300001                     	org	3145729
  5595  300001  02                 	db	2
  5596                           
  5597                           ;Config register CONFIG2L @ 0x300002
  5598                           ;	Power-up Timer Enable bit
  5599                           ;	PWRT = OFF, PWRT disabled
  5600                           ;	Brown-out Reset Enable bits
  5601                           ;	BOREN = OFF, Brown-out Reset disabled in hardware and software
  5602                           ;	Brown Out Reset Voltage bits
  5603                           ;	BORV = 1, 
  5604  300002                     	org	3145730
  5605  300002  09                 	db	9
  5606                           
  5607                           ;Config register CONFIG2H @ 0x300003
  5608                           ;	Watchdog Timer Enable bit
  5609                           ;	WDT = OFF, WDT disabled (control is placed on the SWDTEN bit)
  5610                           ;	Watchdog Timer Postscale Select bits
  5611                           ;	WDTPS = 32768, 1:32768
  5612  300003                     	org	3145731
  5613  300003  1E                 	db	30
  5614                           
  5615                           ; Padding undefined space
  5616  300004                     	org	3145732
  5617  300004  FF                 	db	255
  5618                           
  5619                           ;Config register CONFIG3H @ 0x300005
  5620                           ;	CCP2 MUX bit
  5621                           ;	CCP2MX = PORTC, CCP2 input/output is multiplexed with RC1
  5622                           ;	PORTB A/D Enable bit
  5623                           ;	PBADEN = OFF, PORTB<4:0> pins are configured as digital I/O on Reset
  5624                           ;	Low-Power Timer1 Oscillator Enable bit
  5625                           ;	LPT1OSC = OFF, Timer1 configured for higher power operation
  5626                           ;	MCLR Pin Enable bit
  5627                           ;	MCLRE = ON, MCLR pin enabled; RE3 input pin disabled
  5628  300005                     	org	3145733
  5629  300005  81                 	db	129
  5630                           
  5631                           ;Config register CONFIG4L @ 0x300006
  5632                           ;	Stack Full/Underflow Reset Enable bit
  5633                           ;	STVREN = ON, Stack full/underflow will cause Reset
  5634                           ;	Single-Supply ICSP Enable bit
  5635                           ;	LVP = OFF, Single-Supply ICSP disabled
  5636                           ;	Extended Instruction Set Enable bit
  5637                           ;	XINST = OFF, Instruction set extension and Indexed Addressing mode disabled (Legacy mo
      +                          de)
  5638                           ;	Background Debugger Enable bit
  5639                           ;	DEBUG = 0x1, unprogrammed default
  5640  300006                     	org	3145734
  5641  300006  81                 	db	129
  5642                           
  5643                           ; Padding undefined space
  5644  300007                     	org	3145735
  5645  300007  FF                 	db	255
  5646                           
  5647                           ;Config register CONFIG5L @ 0x300008
  5648                           ;	Code Protection bit
  5649                           ;	CP0 = OFF, Block 0 (000800-003FFFh) not code-protected
  5650                           ;	Code Protection bit
  5651                           ;	CP1 = OFF, Block 1 (004000-007FFFh) not code-protected
  5652                           ;	Code Protection bit
  5653                           ;	CP2 = OFF, Block 2 (008000-00BFFFh) not code-protected
  5654                           ;	Code Protection bit
  5655                           ;	CP3 = OFF, Block 3 (00C000-00FFFFh) not code-protected
  5656  300008                     	org	3145736
  5657  300008  0F                 	db	15
  5658                           
  5659                           ;Config register CONFIG5H @ 0x300009
  5660                           ;	Boot Block Code Protection bit
  5661                           ;	CPB = OFF, Boot block (000000-0007FFh) not code-protected
  5662                           ;	Data EEPROM Code Protection bit
  5663                           ;	CPD = OFF, Data EEPROM not code-protected
  5664  300009                     	org	3145737
  5665  300009  C0                 	db	192
  5666                           
  5667                           ;Config register CONFIG6L @ 0x30000A
  5668                           ;	Write Protection bit
  5669                           ;	WRT0 = OFF, Block 0 (000800-003FFFh) not write-protected
  5670                           ;	Write Protection bit
  5671                           ;	WRT1 = OFF, Block 1 (004000-007FFFh) not write-protected
  5672                           ;	Write Protection bit
  5673                           ;	WRT2 = OFF, Block 2 (008000-00BFFFh) not write-protected
  5674                           ;	Write Protection bit
  5675                           ;	WRT3 = OFF, Block 3 (00C000-00FFFFh) not write-protected
  5676  30000A                     	org	3145738
  5677  30000A  0F                 	db	15
  5678                           
  5679                           ;Config register CONFIG6H @ 0x30000B
  5680                           ;	Configuration Register Write Protection bit
  5681                           ;	WRTC = OFF, Configuration registers (300000-3000FFh) not write-protected
  5682                           ;	Boot Block Write Protection bit
  5683                           ;	WRTB = OFF, Boot Block (000000-0007FFh) not write-protected
  5684                           ;	Data EEPROM Write Protection bit
  5685                           ;	WRTD = OFF, Data EEPROM not write-protected
  5686  30000B                     	org	3145739
  5687  30000B  E0                 	db	224
  5688                           
  5689                           ;Config register CONFIG7L @ 0x30000C
  5690                           ;	Table Read Protection bit
  5691                           ;	EBTR0 = OFF, Block 0 (000800-003FFFh) not protected from table reads executed in other
      +                           blocks
  5692                           ;	Table Read Protection bit
  5693                           ;	EBTR1 = OFF, Block 1 (004000-007FFFh) not protected from table reads executed in other
      +                           blocks
  5694                           ;	Table Read Protection bit
  5695                           ;	EBTR2 = OFF, Block 2 (008000-00BFFFh) not protected from table reads executed in other
      +                           blocks
  5696                           ;	Table Read Protection bit
  5697                           ;	EBTR3 = OFF, Block 3 (00C000-00FFFFh) not protected from table reads executed in other
      +                           blocks
  5698  30000C                     	org	3145740
  5699  30000C  0F                 	db	15
  5700                           
  5701                           ;Config register CONFIG7H @ 0x30000D
  5702                           ;	Boot Block Table Read Protection bit
  5703                           ;	EBTRB = OFF, Boot Block (000000-0007FFh) not protected from table reads executed in ot
      +                          her blocks
  5704  30000D                     	org	3145741
  5705  30000D  40                 	db	64
  5706                           tosu	equ	0xFFF
  5707                           tosh	equ	0xFFE
  5708                           tosl	equ	0xFFD
  5709                           stkptr	equ	0xFFC
  5710                           pclatu	equ	0xFFB
  5711                           pclath	equ	0xFFA
  5712                           pcl	equ	0xFF9
  5713                           tblptru	equ	0xFF8
  5714                           tblptrh	equ	0xFF7
  5715                           tblptrl	equ	0xFF6
  5716                           tablat	equ	0xFF5
  5717                           prodh	equ	0xFF4
  5718                           prodl	equ	0xFF3
  5719                           indf0	equ	0xFEF
  5720                           postinc0	equ	0xFEE
  5721                           postdec0	equ	0xFED
  5722                           preinc0	equ	0xFEC
  5723                           plusw0	equ	0xFEB
  5724                           fsr0h	equ	0xFEA
  5725                           fsr0l	equ	0xFE9
  5726                           wreg	equ	0xFE8
  5727                           indf1	equ	0xFE7
  5728                           postinc1	equ	0xFE6
  5729                           postdec1	equ	0xFE5
  5730                           preinc1	equ	0xFE4
  5731                           plusw1	equ	0xFE3
  5732                           fsr1h	equ	0xFE2
  5733                           fsr1l	equ	0xFE1
  5734                           bsr	equ	0xFE0
  5735                           indf2	equ	0xFDF
  5736                           postinc2	equ	0xFDE
  5737                           postdec2	equ	0xFDD
  5738                           preinc2	equ	0xFDC
  5739                           plusw2	equ	0xFDB
  5740                           fsr2h	equ	0xFDA
  5741                           fsr2l	equ	0xFD9
  5742                           status	equ	0xFD8

Data Sizes:
    Strings     3
    Constant    0
    Data        68
    BSS         79
    Persistent  0
    Stack       0

Auto Spaces:
    Space          Size  Autos    Used
    COMRAM          126     81     123
    BANK0           128      2     107
    BANK1           256      0       0
    BANK2           256      0       0
    BANK3           256      0       0
    BANK4           256      0       0
    BANK5           256      0       0
    BANK6           256      0       0
    BANK7           256      0       0
    BANK8           256      0       0
    BANK9           256      0       0
    BANK10          256      0       0
    BANK11          256      0       0
    BANK12          256      0       0
    BANK13          256      0       0
    BANK14          256      0       0
    BANK15          128      0       0

Pointer List with Targets:

    vfprintf$2	PTR PTR void  size(2) Largest target is 2
		 -> sprintf@ap(COMRAM[2]), 

    vfprintf$1	PTR const unsigned char  size(2) Largest target is 3
		 -> STR_4(CODE[3]), STR_3(CODE[3]), STR_2(CODE[3]), STR_1(CODE[3]), 

    vfprintf$0	PTR struct _IO_FILE size(2) Largest target is 7
		 -> sprintf@f(COMRAM[6]), 

    S4625_IO_FILE$buffer	PTR unsigned char  size(2) Largest target is 6
		 -> convert_uint16_to_string@temp_string(COMRAM[6]), 

    f.buffer	PTR unsigned char  size(2) Largest target is 6
		 -> convert_uint16_to_string@temp_string(COMRAM[6]), 

    i2c_obj.I2C_Report_Receive_Overflow	PTR FTN()void  size(2) Largest target is 1
		 -> Absolute function(), 

    i2c_obj.I2C_DefaultInterruptHandler	PTR FTN()void  size(2) Largest target is 1
		 -> Absolute function(), 

    i2c_obj.I2C_Report_Write_Collision	PTR FTN()void  size(2) Largest target is 1
		 -> Absolute function(), 

    EUSART_RX__Overrun_Interrupt_Handler	PTR FTN()void  size(2) Largest target is 1
		 -> Absolute function(), 

    EUSART_RX__Framing_Interrupt_Handler	PTR FTN()void  size(2) Largest target is 1
		 -> Absolute function(), 

    EUSART_RX_Interrupt_Handler	PTR FTN()void  size(2) Largest target is 1
		 -> Absolute function(), 

    EUSART_ASYNC_RX_Init@_eusart.EUSART_OverrunErrorHandler	PTR FTN()void  size(2) Largest target is 0

    EUSART_ASYNC_RX_Init@_eusart.EUSART_FramingErrorHandler	PTR FTN()void  size(2) Largest target is 0

    EUSART_ASYNC_RX_Init@_eusart.EUSART_RxDefaultInterruptHandler	PTR FTN()void  size(2) Largest target is 0

    EUSART_ASYNC_RX_Init@_eusart.EUSART_TxDefaultInterruptHandler	PTR FTN()void  size(2) Largest target is 0

    EUSART_TX_Interrupt_Handler	PTR FTN()void  size(2) Largest target is 1
		 -> Absolute function(), 

    EUSART_ASYNC_TX_Init@_eusart.EUSART_OverrunErrorHandler	PTR FTN()void  size(2) Largest target is 0

    EUSART_ASYNC_TX_Init@_eusart.EUSART_FramingErrorHandler	PTR FTN()void  size(2) Largest target is 0

    EUSART_ASYNC_TX_Init@_eusart.EUSART_RxDefaultInterruptHandler	PTR FTN()void  size(2) Largest target is 0

    EUSART_ASYNC_TX_Init@_eusart.EUSART_TxDefaultInterruptHandler	PTR FTN()void  size(2) Largest target is 0

    S3613$EUSART_OverrunErrorHandler	PTR FTN()void  size(2) Largest target is 0

    EUSART_Baud_Rate_Calculation@_eusart.EUSART_OverrunErrorHandler	PTR FTN()void  size(2) Largest target is 0

    S3613$EUSART_FramingErrorHandler	PTR FTN()void  size(2) Largest target is 0

    EUSART_Baud_Rate_Calculation@_eusart.EUSART_FramingErrorHandler	PTR FTN()void  size(2) Largest target is 0

    S3613$EUSART_RxDefaultInterruptHandler	PTR FTN()void  size(2) Largest target is 0

    EUSART_Baud_Rate_Calculation@_eusart.EUSART_RxDefaultInterruptHandler	PTR FTN()void  size(2) Largest target is 0

    S3613$EUSART_TxDefaultInterruptHandler	PTR FTN()void  size(2) Largest target is 0

    EUSART_Baud_Rate_Calculation@_eusart.EUSART_TxDefaultInterruptHandler	PTR FTN()void  size(2) Largest target is 0

    Timer3_Preload_Value@_timer3.Timer3_InterruptHandler	PTR FTN()void  size(2) Largest target is 0

    Timer3_RW_Mode_Select@_timer3.Timer3_InterruptHandler	PTR FTN()void  size(2) Largest target is 0

    Timer3_Mode_Select@_timer3.Timer3_InterruptHandler	PTR FTN()void  size(2) Largest target is 0

    Timer3_Prescaler_Config@_timer3.Timer3_InterruptHandler	PTR FTN()void  size(2) Largest target is 0

    Timer3_Interrupt_Handler	PTR FTN()void  size(2) Largest target is 1
		 -> Absolute function(), 

    S3384$Timer3_InterruptHandler	PTR FTN()void  size(2) Largest target is 0

    Timer3_Init@_timer3.Timer3_InterruptHandler	PTR FTN()void  size(2) Largest target is 0

    Timer2_Interrupt_Handler	PTR FTN()void  size(2) Largest target is 1
		 -> Absolute function(), 

    S3246$Timer2_InterruptHandler	PTR FTN()void  size(2) Largest target is 0

    Timer2_Init@_timer2.Timer2_InterruptHandler	PTR FTN()void  size(2) Largest target is 0

    Timer1_Preload_Value@_timer1.Timer1_InterruptHandler	PTR FTN()void  size(2) Largest target is 0

    Timer1_RW_Mode_Select@_timer1.Timer1_InterruptHandler	PTR FTN()void  size(2) Largest target is 0

    Timer1_Mode_Select@_timer1.Timer1_InterruptHandler	PTR FTN()void  size(2) Largest target is 0

    Timer1_Prescaler_Config@_timer1.Timer1_InterruptHandler	PTR FTN()void  size(2) Largest target is 0

    Timer1_Interrupt_Handler	PTR FTN()void  size(2) Largest target is 1
		 -> Absolute function(), 

    S2997$Timer1_InterruptHandler	PTR FTN()void  size(2) Largest target is 0

    Timer1_Init@_timer1.Timer1_InterruptHandler	PTR FTN()void  size(2) Largest target is 0

    Timer0_Preload_Value@_timer0.Timer0_InterruptHandler	PTR FTN()void  size(2) Largest target is 0

    Timer0_Register_Size_Config@_timer0.Timer0_InterruptHandler	PTR FTN()void  size(2) Largest target is 0

    Timer0_Mode_Select@_timer0.Timer0_InterruptHandler	PTR FTN()void  size(2) Largest target is 0

    Timer0_Prescaler_Config@_timer0.Timer0_InterruptHandler	PTR FTN()void  size(2) Largest target is 0

    Timer0_Interrupt_Handler	PTR FTN()void  size(2) Largest target is 1
		 -> Absolute function(), 

    S2807$Timer0_InterruptHandler	PTR FTN()void  size(2) Largest target is 0

    Timer0_Init@_timer0.Timer0_InterruptHandler	PTR FTN()void  size(2) Largest target is 0

    RB7_Interrupt_Handler_High	PTR FTN()void  size(2) Largest target is 1
		 -> Absolute function(), 

    RB7_Interrupt_Handler_Low	PTR FTN()void  size(2) Largest target is 1
		 -> Absolute function(), 

    RB6_Interrupt_Handler_High	PTR FTN()void  size(2) Largest target is 1
		 -> Absolute function(), 

    RB6_Interrupt_Handler_Low	PTR FTN()void  size(2) Largest target is 1
		 -> Absolute function(), 

    RB5_Interrupt_Handler_High	PTR FTN()void  size(2) Largest target is 1
		 -> Absolute function(), 

    RB5_Interrupt_Handler_Low	PTR FTN()void  size(2) Largest target is 1
		 -> Absolute function(), 

    RB4_Interrupt_Handler_High	PTR FTN()void  size(2) Largest target is 1
		 -> Absolute function(), 

    interrupt_RBx_Set_Interrupt_Handler@int_obj.EXT_Interrupt_Handeler_Low	PTR FTN()void  size(2) Largest target is 0

    interrupt_RBx_Set_Interrupt_Handler@int_obj.EXT_Interrupt_Handeler_High	PTR FTN()void  size(2) Largest target is 0

    RB4_Interrupt_Handler_Low	PTR FTN()void  size(2) Largest target is 1
		 -> Absolute function(), 

    S2313$EXT_Interrupt_Handeler_Low	PTR FTN()void  size(2) Largest target is 0

    interrupt_RBx_pin_int@int_obj.EXT_Interrupt_Handeler_Low	PTR FTN()void  size(2) Largest target is 0

    S2313$EXT_Interrupt_Handeler_High	PTR FTN()void  size(2) Largest target is 0

    interrupt_RBx_pin_int@int_obj.EXT_Interrupt_Handeler_High	PTR FTN()void  size(2) Largest target is 0

    interrupt_INTx_Set_Interrupt_Handler@int_obj.EXT_Interrupt_handeler	PTR FTN()void  size(2) Largest target is 0

    INT2_Interrupt_Handler	PTR FTN()void  size(2) Largest target is 1
		 -> Absolute function(), 

    INT1_Interrupt_Handler	PTR FTN()void  size(2) Largest target is 1
		 -> Absolute function(), 

    INT0_Interrupt_Handler	PTR FTN()void  size(2) Largest target is 1
		 -> Absolute function(), 

    interrupt_INTx_clear_flag@int_obj.EXT_Interrupt_handeler	PTR FTN()void  size(2) Largest target is 0

    interrupt_INTx_pin_int@int_obj.EXT_Interrupt_handeler	PTR FTN()void  size(2) Largest target is 0

    interrupt_INTx_ege_int@int_obj.EXT_Interrupt_handeler	PTR FTN()void  size(2) Largest target is 0

    interrupt_INTx_disable@int_obj.EXT_Interrupt_handeler	PTR FTN()void  size(2) Largest target is 0

    S2160$EXT_Interrupt_handeler	PTR FTN()void  size(2) Largest target is 0

    interrupt_INTx_enable@int_obj.EXT_Interrupt_handeler	PTR FTN()void  size(2) Largest target is 0

    I2C_Report_Receive_Overflow	PTR FTN()void  size(2) Largest target is 1
		 -> Absolute function(), 

    I2C_Interrupt_configuration@i2c_obj.I2C_Report_Receive_Overflow	PTR FTN()void  size(2) Largest target is 1
		 -> Absolute function(), 

    I2C_Interrupt_configuration@i2c_obj.I2C_DefaultInterruptHandler	PTR FTN()void  size(2) Largest target is 1
		 -> Absolute function(), 

    I2C_Interrupt_configuration@i2c_obj.I2C_Report_Write_Collision	PTR FTN()void  size(2) Largest target is 1
		 -> Absolute function(), 

    I2C_Interrupt_configuration@i2c_obj	PTR const struct . size(2) Largest target is 13
		 -> i2c_obj(BANK0[13]), 

    I2C_Slave_Mode_Clock_Configurations@i2c_obj.I2C_Report_Receive_Overflow	PTR FTN()void  size(2) Largest target is 1
		 -> Absolute function(), 

    I2C_Slave_Mode_Clock_Configurations@i2c_obj.I2C_DefaultInterruptHandler	PTR FTN()void  size(2) Largest target is 1
		 -> Absolute function(), 

    I2C_Slave_Mode_Clock_Configurations@i2c_obj.I2C_Report_Write_Collision	PTR FTN()void  size(2) Largest target is 1
		 -> Absolute function(), 

    I2C_Slave_Mode_Clock_Configurations@i2c_obj	PTR const struct . size(2) Largest target is 13
		 -> i2c_obj(BANK0[13]), 

    I2C_Master_Mode_Clock_Configurations@i2c_obj.I2C_Report_Receive_Overflow	PTR FTN()void  size(2) Largest target is 1
		 -> Absolute function(), 

    I2C_Master_Mode_Clock_Configurations@i2c_obj.I2C_DefaultInterruptHandler	PTR FTN()void  size(2) Largest target is 1
		 -> Absolute function(), 

    I2C_Master_Mode_Clock_Configurations@i2c_obj.I2C_Report_Write_Collision	PTR FTN()void  size(2) Largest target is 1
		 -> Absolute function(), 

    I2C_Master_Mode_Clock_Configurations@i2c_obj	PTR const struct . size(2) Largest target is 13
		 -> i2c_obj(BANK0[13]), 

    I2C_Report_Write_Collision	PTR FTN()void  size(2) Largest target is 1
		 -> Absolute function(), 

    I2C_DefaultInterruptHandler	PTR FTN()void  size(2) Largest target is 1
		 -> Absolute function(), 

    MSSP_I2C_Master_Write_Blocking@_ack	PTR unsigned char  size(2) Largest target is 1
		 -> ack(COMRAM[1]), PCA_Write_Reg@ack(COMRAM[1]), 

    MSSP_I2C_Master_Write_Blocking@i2c_obj	PTR const struct . size(2) Largest target is 13
		 -> i2c_obj(BANK0[13]), 

    MSSP_I2C_Master_Send_Stop@i2c_obj	PTR const struct . size(2) Largest target is 13
		 -> i2c_obj(BANK0[13]), 

    MSSP_I2C_Master_Send_Start@i2c_obj	PTR const struct . size(2) Largest target is 13
		 -> i2c_obj(BANK0[13]), 

    S616$I2C_Report_Receive_Overflow	PTR FTN()void  size(2) Largest target is 1
		 -> Absolute function(), 

    MSSP_I2C_Init@i2c_obj.I2C_Report_Receive_Overflow	PTR FTN()void  size(2) Largest target is 1
		 -> Absolute function(), 

    S616$I2C_DefaultInterruptHandler	PTR FTN()void  size(2) Largest target is 1
		 -> Absolute function(), 

    MSSP_I2C_Init@i2c_obj.I2C_DefaultInterruptHandler	PTR FTN()void  size(2) Largest target is 1
		 -> Absolute function(), 

    S616$I2C_Report_Write_Collision	PTR FTN()void  size(2) Largest target is 1
		 -> Absolute function(), 

    MSSP_I2C_Init@i2c_obj.I2C_Report_Write_Collision	PTR FTN()void  size(2) Largest target is 1
		 -> Absolute function(), 

    MSSP_I2C_Init@i2c_obj	PTR const struct . size(2) Largest target is 13
		 -> i2c_obj(BANK0[13]), 

    port_registers	PTR volatile unsigned char [5] size(2) Largest target is 1
		 -> PORTE(SFR[1]), PORTD(SFR[1]), PORTC(SFR[1]), PORTB(SFR[1]), 
		 -> PORTA(SFR[1]), 

    lat_registers	PTR volatile unsigned char [5] size(2) Largest target is 1
		 -> LATE(SFR[1]), LATD(SFR[1]), LATC(SFR[1]), LATB(SFR[1]), 
		 -> LATA(SFR[1]), 

    tris_registers	PTR volatile unsigned char [5] size(2) Largest target is 1
		 -> TRISD(SFR[1]), TRISC(SFR[1]), TRISB(SFR[1]), TRISE(SFR[1]), 
		 -> TRISA(SFR[1]), 

    CCP1_Capture_compare_Mode_Timer_Select@_ccp_obj.CCP1_InterruptHandler	PTR FTN()void  size(2) Largest target is 0

    CCP1_InterruptHandler	PTR FTN()void  size(2) Largest target is 1
		 -> Absolute function(), 

    S1174$CCP1_InterruptHandler	PTR FTN()void  size(2) Largest target is 0

    CCP1_Init@_ccp_obj.CCP1_InterruptHandler	PTR FTN()void  size(2) Largest target is 0

    adc_select_voltage_reference@_adc.ADC_Interupt_handler	PTR FTN()void  size(2) Largest target is 0

    adc_select_result_formate@_adc.ADC_Interupt_handler	PTR FTN()void  size(2) Largest target is 0

    ADC_Get_Conversion_Results@_adc.ADC_Interupt_handler	PTR FTN()void  size(2) Largest target is 0

    ADC_Interrupt_Handler	PTR FTN()void  size(2) Largest target is 1
		 -> Absolute function(), 

    S774$ADC_Interupt_handler	PTR FTN()void  size(2) Largest target is 0

    ADC_Init@_adc.ADC_Interupt_handler	PTR FTN()void  size(2) Largest target is 0

    PCA_Write_Reg@i2c_obj	PTR const struct . size(2) Largest target is 13
		 -> i2c_obj(BANK0[13]), 

    Servo_SetAngle@servo_driver_obj	PTR const struct . size(2) Largest target is 4
		 -> s1_obj(BANK0[4]), 

    Servo_SetAngle@i2c_obj	PTR const struct . size(2) Largest target is 13
		 -> i2c_obj(BANK0[13]), 

    ServoDriver_Init@servo_driver_obj	PTR const struct . size(2) Largest target is 4
		 -> s1_obj(BANK0[4]), 

    ServoDriver_Init@i2c_obj	PTR const struct . size(2) Largest target is 13
		 -> i2c_obj(BANK0[13]), 

    sp__memset	PTR void  size(2) Largest target is 0


Critical Paths under _main in COMRAM

    _application_intialize->_ServoDriver_Init
    _ServoDriver_Init->_MSSP_I2C_Init
    _MSSP_I2C_Init->_I2C_Master_Mode_Clock_Configurations
    _I2C_Master_Mode_Clock_Configurations->___fltol
    ___fldiv->___xxtofl
    _Servo_SetAngle->___fltol
    ___fltol->___fladd
    ___flmul->___xxtofl
    ___fladd->___fldiv
    ___fladd->___flmul
    _PCA_Write_Reg->_MSSP_I2C_Master_Write_Blocking

Critical Paths under _Interrupt_Manager in COMRAM

    _Interrupt_Manager->_EUSART_RX_ISR

Critical Paths under _main in BANK0

    None.

Critical Paths under _Interrupt_Manager in BANK0

    None.

Critical Paths under _main in BANK1

    None.

Critical Paths under _Interrupt_Manager in BANK1

    None.

Critical Paths under _main in BANK2

    None.

Critical Paths under _Interrupt_Manager in BANK2

    None.

Critical Paths under _main in BANK3

    None.

Critical Paths under _Interrupt_Manager in BANK3

    None.

Critical Paths under _main in BANK4

    None.

Critical Paths under _Interrupt_Manager in BANK4

    None.

Critical Paths under _main in BANK5

    None.

Critical Paths under _Interrupt_Manager in BANK5

    None.

Critical Paths under _main in BANK6

    None.

Critical Paths under _Interrupt_Manager in BANK6

    None.

Critical Paths under _main in BANK7

    None.

Critical Paths under _Interrupt_Manager in BANK7

    None.

Critical Paths under _main in BANK8

    None.

Critical Paths under _Interrupt_Manager in BANK8

    None.

Critical Paths under _main in BANK9

    None.

Critical Paths under _Interrupt_Manager in BANK9

    None.

Critical Paths under _main in BANK10

    None.

Critical Paths under _Interrupt_Manager in BANK10

    None.

Critical Paths under _main in BANK11

    None.

Critical Paths under _Interrupt_Manager in BANK11

    None.

Critical Paths under _main in BANK12

    None.

Critical Paths under _Interrupt_Manager in BANK12

    None.

Critical Paths under _main in BANK13

    None.

Critical Paths under _Interrupt_Manager in BANK13

    None.

Critical Paths under _main in BANK14

    None.

Critical Paths under _Interrupt_Manager in BANK14

    None.

Critical Paths under _main in BANK15

    None.

Critical Paths under _Interrupt_Manager in BANK15

    None.

Call Graph Tables:

 ---------------------------------------------------------------------------------
 (Depth) Function   	        Calls       Base Space   Used Autos Params    Refs
 ---------------------------------------------------------------------------------
 (0) _main                                                 4     4      0   42471
                                             79 COMRAM     2     2      0
                                              0 BANK0      2     2      0
                     _Servo_SetAngle
              _application_intialize
 ---------------------------------------------------------------------------------
 (1) _application_intialize                                0     0      0   28297
                      _MSSP_I2C_Init
                   _ServoDriver_Init
 ---------------------------------------------------------------------------------
 (2) _ServoDriver_Init                                     5     1      4   16633
                                             74 COMRAM     5     1      4
                      _MSSP_I2C_Init
                      _PCA_Write_Reg
 ---------------------------------------------------------------------------------
 (3) _MSSP_I2C_Init                                        3     1      2   11664
                                             71 COMRAM     3     1      2
        _I2C_Interrupt_configuration
_I2C_Master_Mode_Clock_Configuration
             _I2C_Pin_Configurations
_I2C_Slave_Mode_Clock_Configurations
 ---------------------------------------------------------------------------------
 (4) _I2C_Slave_Mode_Clock_Configurations                  4     2      2     158
                                              2 COMRAM     4     2      2
 ---------------------------------------------------------------------------------
 (4) _I2C_Pin_Configurations                               0     0      0       0
 ---------------------------------------------------------------------------------
 (4) _I2C_Master_Mode_Clock_Configurations                 4     2      2   10727
                                             67 COMRAM     4     2      2
                            ___fladd
                            ___fldiv
                            ___fltol
                           ___xxtofl
 ---------------------------------------------------------------------------------
 (5) ___fldiv                                             25    17      8    4103
                                             16 COMRAM    25    17      8
                           ___xxtofl (ARG)
 ---------------------------------------------------------------------------------
 (4) _I2C_Interrupt_configuration                          2     0      2     183
                                              2 COMRAM     2     0      2
 ---------------------------------------------------------------------------------
 (1) _Servo_SetAngle                                      10     4      6   14075
                                             67 COMRAM    10     4      6
                      _PCA_Write_Reg
                            ___fladd
                            ___flmul
                            ___fltol
                           ___xxtofl
 ---------------------------------------------------------------------------------
 (5) ___xxtofl                                            14    10      4    1166
                                              2 COMRAM    14    10      4
 ---------------------------------------------------------------------------------
 (5) ___fltol                                             10     6      4     667
                                             57 COMRAM    10     6      4
                            ___fladd (ARG)
                            ___fldiv (ARG)
                            ___flmul (ARG)
                           ___xxtofl (ARG)
 ---------------------------------------------------------------------------------
 (2) ___flmul                                             25    17      8    2513
                                             16 COMRAM    25    17      8
                           ___xxtofl (ARG)
 ---------------------------------------------------------------------------------
 (5) ___fladd                                             16     8      8    4602
                                             41 COMRAM    16     8      8
                            ___fldiv (ARG)
                            ___flmul (ARG)
                           ___xxtofl (ARG)
 ---------------------------------------------------------------------------------
 (3) _PCA_Write_Reg                                        6     1      5    4404
                                              8 COMRAM     6     1      5
         _MSSP_I2C_Master_Send_Start
          _MSSP_I2C_Master_Send_Stop
     _MSSP_I2C_Master_Write_Blocking
 ---------------------------------------------------------------------------------
 (4) _MSSP_I2C_Master_Write_Blocking                       6     1      5    1788
                                              2 COMRAM     6     1      5
 ---------------------------------------------------------------------------------
 (4) _MSSP_I2C_Master_Send_Stop                            3     1      2     230
                                              2 COMRAM     3     1      2
 ---------------------------------------------------------------------------------
 (4) _MSSP_I2C_Master_Send_Start                           3     1      2     230
                                              2 COMRAM     3     1      2
 ---------------------------------------------------------------------------------
 Estimated maximum stack depth 5
 ---------------------------------------------------------------------------------
 (Depth) Function   	        Calls       Base Space   Used Autos Params    Refs
 ---------------------------------------------------------------------------------
 (6) _Interrupt_Manager                                    0     0      0     163
                            _ADC_ISR
                           _CCP1_ISR
                      _EUSART_RX_ISR
                      _EUSART_TX_ISR
                         _I2C_BC_ISR
                            _I2C_ISR
                           _INT0_ISR
                           _INT1_ISR
                           _INT2_ISR
                            _RB4_ISR
                            _RB5_ISR
                            _RB6_ISR
                            _RB7_ISR
                           _TMR0_ISR
                           _TMR1_ISR
                           _TMR2_ISR
                           _TMR3_ISR
 ---------------------------------------------------------------------------------
 (7) _TMR3_ISR                                             0     0      0       0
 ---------------------------------------------------------------------------------
 (7) _TMR2_ISR                                             0     0      0       0
 ---------------------------------------------------------------------------------
 (7) _TMR1_ISR                                             0     0      0       0
 ---------------------------------------------------------------------------------
 (7) _TMR0_ISR                                             0     0      0       0
 ---------------------------------------------------------------------------------
 (7) _RB7_ISR                                              1     1      0      44
                                              0 COMRAM     1     1      0
 ---------------------------------------------------------------------------------
 (7) _RB6_ISR                                              1     1      0      44
                                              0 COMRAM     1     1      0
 ---------------------------------------------------------------------------------
 (7) _RB5_ISR                                              1     1      0      44
                                              0 COMRAM     1     1      0
 ---------------------------------------------------------------------------------
 (7) _RB4_ISR                                              1     1      0      30
                                              0 COMRAM     1     1      0
 ---------------------------------------------------------------------------------
 (7) _INT2_ISR                                             0     0      0       0
 ---------------------------------------------------------------------------------
 (7) _INT1_ISR                                             0     0      0       0
 ---------------------------------------------------------------------------------
 (7) _INT0_ISR                                             0     0      0       0
 ---------------------------------------------------------------------------------
 (7) _I2C_ISR                                              0     0      0       0
 ---------------------------------------------------------------------------------
 (7) _I2C_BC_ISR                                           0     0      0       0
 ---------------------------------------------------------------------------------
 (7) _EUSART_TX_ISR                                        0     0      0       0
 ---------------------------------------------------------------------------------
 (7) _EUSART_RX_ISR                                        2     2      0       1
                                              0 COMRAM     2     2      0
 ---------------------------------------------------------------------------------
 (7) _CCP1_ISR                                             0     0      0       0
 ---------------------------------------------------------------------------------
 (7) _ADC_ISR                                              0     0      0       0
 ---------------------------------------------------------------------------------
 Estimated maximum stack depth 7
 ---------------------------------------------------------------------------------

 Call Graph Graphs:

 _main (ROOT)
   _Servo_SetAngle
     _PCA_Write_Reg
       _MSSP_I2C_Master_Send_Start
       _MSSP_I2C_Master_Send_Stop
       _MSSP_I2C_Master_Write_Blocking
     ___fladd
       ___fldiv (ARG)
         ___xxtofl (ARG)
       ___flmul (ARG)
         ___xxtofl (ARG)
       ___xxtofl (ARG)
     ___flmul
       ___xxtofl (ARG)
     ___fltol
       ___fladd (ARG)
         ___fldiv (ARG)
           ___xxtofl (ARG)
         ___flmul (ARG)
           ___xxtofl (ARG)
         ___xxtofl (ARG)
       ___fldiv (ARG)
         ___xxtofl (ARG)
       ___flmul (ARG)
         ___xxtofl (ARG)
       ___xxtofl (ARG)
     ___xxtofl
   _application_intialize
     _MSSP_I2C_Init
       _I2C_Interrupt_configuration
       _I2C_Master_Mode_Clock_Configurations
         ___fladd
           ___fldiv (ARG)
             ___xxtofl (ARG)
           ___flmul (ARG)
             ___xxtofl (ARG)
           ___xxtofl (ARG)
         ___fldiv
           ___xxtofl (ARG)
         ___fltol
           ___fladd (ARG)
             ___fldiv (ARG)
               ___xxtofl (ARG)
             ___flmul (ARG)
               ___xxtofl (ARG)
             ___xxtofl (ARG)
           ___fldiv (ARG)
             ___xxtofl (ARG)
           ___flmul (ARG)
             ___xxtofl (ARG)
           ___xxtofl (ARG)
         ___xxtofl
       _I2C_Pin_Configurations
       _I2C_Slave_Mode_Clock_Configurations
     _ServoDriver_Init
       _MSSP_I2C_Init
         _I2C_Interrupt_configuration
         _I2C_Master_Mode_Clock_Configurations
           ___fladd
             ___fldiv (ARG)
               ___xxtofl (ARG)
             ___flmul (ARG)
               ___xxtofl (ARG)
             ___xxtofl (ARG)
           ___fldiv
             ___xxtofl (ARG)
           ___fltol
             ___fladd (ARG)
               ___fldiv (ARG)
                 ___xxtofl (ARG)
               ___flmul (ARG)
                 ___xxtofl (ARG)
               ___xxtofl (ARG)
             ___fldiv (ARG)
               ___xxtofl (ARG)
             ___flmul (ARG)
               ___xxtofl (ARG)
             ___xxtofl (ARG)
           ___xxtofl
         _I2C_Pin_Configurations
         _I2C_Slave_Mode_Clock_Configurations
       _PCA_Write_Reg
         _MSSP_I2C_Master_Send_Start
         _MSSP_I2C_Master_Send_Stop
         _MSSP_I2C_Master_Write_Blocking

 _Interrupt_Manager (ROOT)
   _ADC_ISR
   _CCP1_ISR
   _EUSART_RX_ISR
   _EUSART_TX_ISR
   _I2C_BC_ISR
   _I2C_ISR
   _INT0_ISR
   _INT1_ISR
   _INT2_ISR
   _RB4_ISR
   _RB5_ISR
   _RB6_ISR
   _RB7_ISR
   _TMR0_ISR
   _TMR1_ISR
   _TMR2_ISR
   _TMR3_ISR

 Address spaces:
Name               Size   Autos  Total    Cost      Usage
BIGRAM             F7F      0       0      37        0.0%
EEDATA             400      0       0       0        0.0%
BITBANK14          100      0       0      32        0.0%
BANK14             100      0       0      33        0.0%
BITBANK13          100      0       0      30        0.0%
BANK13             100      0       0      31        0.0%
BITBANK12          100      0       0      28        0.0%
BANK12             100      0       0      29        0.0%
BITBANK11          100      0       0      26        0.0%
BANK11             100      0       0      27        0.0%
BITBANK10          100      0       0      24        0.0%
BANK10             100      0       0      25        0.0%
BITBANK9           100      0       0      22        0.0%
BANK9              100      0       0      23        0.0%
BITBANK8           100      0       0      20        0.0%
BANK8              100      0       0      21        0.0%
BITBANK7           100      0       0      18        0.0%
BANK7              100      0       0      19        0.0%
BITBANK6           100      0       0      16        0.0%
BANK6              100      0       0      17        0.0%
BITBANK5           100      0       0      14        0.0%
BANK5              100      0       0      15        0.0%
BITBANK4           100      0       0      12        0.0%
BANK4              100      0       0      13        0.0%
BITBANK3           100      0       0      10        0.0%
BANK3              100      0       0      11        0.0%
BITBANK2           100      0       0       8        0.0%
BANK2              100      0       0       9        0.0%
BITBANK1           100      0       0       6        0.0%
BANK1              100      0       0       7        0.0%
BITBANK15           80      0       0      35        0.0%
BANK15              80      0       0      36        0.0%
BITBANK0            80      0       0       4        0.0%
BANK0               80      2      6B       5       83.6%
BITCOMRAM           7E      0       0       0        0.0%
COMRAM              7E     51      7B       1       97.6%
BITSFR               0      0       0     200        0.0%
SFR                  0      0       0     200        0.0%
STACK                0      0       0       2        0.0%
NULL                 0      0       0       0        0.0%
ABS                  0      0      E6      34        0.0%
DATA                 0      0      E6       3        0.0%
CODE                 0      0       0       0        0.0%


Microchip Technology PIC18 Macro Assembler V2.30 build 20200825195618 
Symbol Table                                                                                   Wed Sep 21 08:21:20 2022

                                 ___fldiv@aexp 0029                                   ___fldiv@bexp 0028  
                                            _i 00C9                                   ___fldiv@sign 0021  
                                  _SSPSTATbits 000FC7                            ??_Interrupt_Manager 0003  
                                          l342 2526                                            l345 27CC  
                                          l337 25E0                                            l802 2766  
                                          l745 229C                                            l739 221A  
                                          l772 2930                                            l860 2880  
                                          l765 2910                                            l757 2348  
                                          l790 28F8                                            l854 2962  
                                          l767 2912                                            l783 28D8  
                                          l769 2920                                            l785 28DA  
                                          l793 2728                                            l849 2690  
                                          l857 2A3A                                            l787 28E8  
                                          l797 272C                                            l799 273A  
                                          _ack 007B                                __end_of_I2C_ISR 2A52  
                              __end_of_ADC_ISR 2A62                            led_initialize@F3038 0076  
                        relay_initialize@F3036 0072                                            wreg 000FE8  
                                   _TXSTA1bits 000FAC                                   ___flmul@aexp 001E  
                                 ___flmul@bexp 0023                                   ___flmul@sign 001D  
                                 ___flmul@temp 0028                                   ___flmul@prod 0024  
                              __end_of_RB4_ISR 2A0A                                __end_of_RB5_ISR 29F0  
                              __end_of_RB6_ISR 29D6                                __end_of_RB7_ISR 29BC  
                                 ___fltol@exp1 0043                                           l2204 13DE  
                                         l2205 13CC                                           l2312 213E  
                                         l2232 204E                                           l2305 20A6  
                                         l2234 1EAE                                           l2243 1EF4  
                                         l2180 11A8                                           l2308 2202  
                                         l2245 1F6C                                           l2237 1E72  
                                         l2246 1F5A                                           l2271 1780  
                                         l2319 219A                                           l2264 158A  
                                         l2281 18B0                                           l2273 17F8  
                                         l1641 2984                                           l2178 11F4  
                                         l2274 17E6                                           l2195 130E  
                                         l2187 14C4                                           l2179 11E2  
                                         l1635 26F8                                           l2268 18EE  
                                         l1947 244E                                           l8000 1FF4  
                                         l8010 2042                                           l8002 200E  
                                         l8020 234A                                           l8100 21D2  
                                         l8012 2044                                           l8004 202A  
                                         l8110 28FA                                           l8030 23A0  
                                         l8022 2360                                           l8102 21E2  
                                         l8006 202E                                           l8112 28FA  
                                         l8032 23B0                                           l8104 21F0  
                                         l8008 203C                                           l8200 229A  
                                         l8114 290C                                           l8130 274A  
                                         l8122 2700                                           l8042 23DA  
                                         l8034 23B4                                           l8026 2374  
                                         l8106 21F2                                           l8210 22DC  
                                         l8202 22A2                                           l8116 2930  
                                         l8140 28D4                                           l8132 275A  
                                         l8124 2700                                           l8300 15EA  
                                         l8060 243E                                           l8052 2402  
                                         l8044 23E4                                           l8036 23C2  
                                         l8028 239E                                           l8220 231E  
                                         l8212 22E2                                           l8204 22B2  
                                         l8142 28F8                                           l8126 2712  
                                         l8230 2768                                           l8310 1634  
                                         l8302 15F6                                           l8054 240E  
                                         l8046 23EE                                           l8070 20B6  
                                         l8150 25E2                                           l8222 2338  
                                         l8214 22FC                                           l8206 22BE  
                                         l8136 28C2                                           l8128 2724  
                                         l8240 27C0                                           l8232 276C  
                                         l8320 1686                                           l8312 1640  
                                         l8304 160E                                           l8056 241E  
                                         l8080 20F4                                           l8072 20CC  
                                         l8064 2052                                           l8152 25F4  
                                         l8160 2932                                           l8224 233A  
                                         l8216 22FE                                           l8208 22C2  
                                         l8138 28C2                                           l8234 2778  
                                         l8330 1704                                           l8322 1696  
                                         l8314 1650                                           l8306 161A  
                                         l8058 242E                                           l8090 217C  
                                         l8082 2126                                           l8066 2062  
                                         l8170 283A                                           l8154 25F8  
                                         l8162 2944                                           l8226 2346  
                                         l8218 2318                                           l8250 2550  
                                         l8242 2528                                           l8402 2964  
                                         l8236 2790                                           l7700 1072  
                                         l8340 177E                                           l8332 173A  
                                         l8324 16B2                                           l8316 165C  
                                         l8308 1626                                           l8260 14E2  
                                         l8092 218A                                           l8084 2128  
                                         l8076 20E0                                           l8068 2070  
                                         l8180 286A                                           l8172 2862  
                                         l8156 2612                                           l8148 25E2  
                                         l8164 2948                                           l8244 2528  
                                         l8238 27A8                                           l7710 109C  
                                         l7702 1084                                           l8350 17DE  
                                         l8342 1790                                           l8334 1748  
                                         l8326 16BE                                           l8318 166C  
                                         l8270 1528                                           l8262 14F2  
                                         l8254 14C6                                           l8094 21A8  
                                         l8086 2134                                           l8078 20E8  
                                         l8174 2864                                           l8166 2A36  
                                         l8158 2932                                           l8190 2236  
                                         l8182 2204                                           l8246 253A  
                                         l7800 1272                                           l7712 10AC  
                                         l7720 10D6                                           l7704 1086  
                                         l8360 184C                                           l8344 179E  
                                         l8336 1766                                           l8328 16DA  
                                         l8280 1554                                           l8272 152E  
                                         l8264 1502                                           l8256 14D2  
                                         l8096 21AA                                           l8088 2170  
                                         l8176 2866                                           l8168 2830  
                                         l8192 2246                                           l8184 2204  
                                         l8248 254C                                           l7810 12DE  
                                         l7802 127C                                           l7730 110E  
                                         l7722 10E6                                           l7714 10BC  
                                         l7706 108C                                           l8370 18B4  
                                         l8354 1808                                           l8362 1850  
                                         l8346 17A2                                           l8338 1770  
                                         l8290 15AA                                           l8282 1564  
                                         l8274 1534                                           l8266 1512  
                                         l8258 14E0                                           l8098 21AE  
                                         l8178 2868                                           l8194 2260  
                                         l8186 2216                                           l7812 12EE  
                                         l7804 1282                                           l7740 1122  
                                         l7732 1112                                           l7724 10F8  
                                         l7716 10CC                                           l7708 109A  
                                         l8380 18DE                                           l8372 18C4  
                                         l8364 186A                                           l8356 1814  
                                         l8348 17B0                                           l8284 1574  
                                         l8276 1542                                           l8268 1518  
                                         l7900 1D1C                                           l8196 227A  
                                         l8188 221C                                           l8460 2692  
                                         l7830 1370                                           l7822 1348  
                                         l7806 12A8                                           l7814 12FE  
                                         l7750 1136                                           l7742 1126  
                                         l7734 1116                                           l7726 1106  
                                         l7718 10CE                                           l8374 18D2  
                                         l8366 187E                                           l8358 1822  
                                         l8294 15BE                                           l8286 157A  
                                         l8278 1544                                           l8390 2466  
                                         l7910 1D48                                           l7902 1D22  
                                         l8198 2280                                           l8470 26BC  
                                         l8462 2696                                           l7832 1378  
                                         l7824 1352                                           l7816 1324  
                                         l7808 12DC                                           l7840 139C  
                                         l7760 114A                                           l7752 113A  
                                         l7744 112A                                           l7736 111A  
                                         l7728 110A                                           l7680 1006  
                                         l8376 18D4                                           l8368 1898  
                                         l8296 15CA                                           l8288 159A  
                                         l8392 2470                                           l8384 2450  
                                         l7920 1D82                                           l7912 1D58  
                                         l7904 1D28                                           l8472 26D2  
                                         l7850 13EE                                           l7842 13A0  
                                         l7834 137C                                           l7826 1360  
                                         l7818 1334                                           l7770 11C2  
                                         l7762 1174                                           l7754 113E  
                                         l7746 112E                                           l7738 111E  
                                         l7690 1042                                           l7682 1012  
                                         l8378 18DA                                           l8298 15D4  
                                         l8394 24E4                                           l8386 2450  
                                         l7922 1D98                                           l7914 1D68  
                                         l7906 1D36                                           l8474 26D6  
                                         l7860 1454                                           l7852 13FA  
                                         l7844 13AE                                           l7836 138C  
                                         l7828 1362                                           l7780 1202  
                                         l7772 11C6                                           l7764 1190  
                                         l7756 1142                                           l7748 1132  
                                         l7692 1052                                           l7684 1020  
                                         l8396 2504                                           l8388 2462  
                                         l7940 1DEC                                           l7924 1DA8  
                                         l7932 1DC8                                           l7916 1D6A  
                                         l7908 1D38                                           l8476 26DC  
                                         l8468 26A0                                           l7870 149C  
                                         l7862 1464                                           l7854 1408  
                                         l7846 13C4                                           l7838 138E  
                                         l7790 1244                                           l7782 1212  
                                         l7774 11D4                                           l7766 11A0  
                                         l7758 1146                                           l7694 1054  
                                         l7686 1022                                           l8398 2506  
                                         l7950 1E3E                                           l7942 1E06  
                                         l7934 1DD8                                           l7926 1DB0  
                                         l7918 1D72                                           l7872 149E  
                                         l7864 1484                                           l7856 1442  
                                         l7792 1252                                           l7776 11D6  
                                         l7768 11B6                                           l7688 1032  
                                         l7696 105C                                           l7960 1E9A  
                                         l7952 1E4E                                           l7944 1E16  
                                         l7936 1DD8                                           l7928 1DB4  
                                         l7874 14A4                                           l7866 1488  
                                         l7858 1444                                           l7794 125E  
                                         l7786 1226                                           l7778 11E0  
                                         l7698 106C                                           l7970 1EDA  
                                         l7962 1E9C                                           l7954 1E62  
                                         l7946 1E26                                           l7890 1CE2  
                                         l7882 1CB6                                           l7876 14B2  
                                         l7868 1496                                           l7796 1262  
                                         l7788 1236                                           l7980 1F16  
                                         l7972 1EE4                                           l7964 1EAC  
                                         l7956 1E70                                           l7948 1E36  
                                         l7892 1CF2                                           l7884 1CC2  
                                         l7878 14B4                                           l7798 1270  
                                         l7990 1F88                                           l7982 1F24  
                                         l7974 1EF2                                           l7966 1EBE  
                                         l7958 1E7C                                           l7894 1D02  
                                         l7886 1CD0                                           l7992 1F96  
                                         l7984 1F52                                           l7968 1ED4  
                                         l7976 1F04                                           l7896 1D04  
                                         l7888 1CD2                                           l7994 1FC0  
                                         l7978 1F12                                           l7898 1D0C  
                                         l7988 1F7C                                           l7996 1FC4  
                                         l7998 1FDE                                           STR_1 1001  
                                         _LATA 000F89                                           _LATB 000F8A  
                                         _LATC 000F8B                                           _LATD 000F8C  
                                         _LATE 000F8D                                           u8000 1F24  
                                         u8001 1F20                                           u8010 1F52  
                                         u8011 1F4E                                           u8100 23C2  
                                         u8020 1F68                                           u8101 23BE  
                                         u8021 1F64                                           u8110 23D6  
                                         u8030 1F7C                                           u8111 23D2  
                                         u8031 1F78                                           u8120 23FE  
                                         u8200 218A                                           u8040 1F96  
                                         u8121 23FA                                           u8201 2186  
                                         u8041 1F92                                           u8130 241E  
                                         u8210 219A                                           u8050 1FDE  
                                         u8131 241A                                           u8211 2196  
                                         u8051 1FDA                                           u8300 273A  
                                         u7500 109A                                           u8140 242E  
                                         u8220 21A8                                           u8060 200E  
                                         u8301 2736                                           u7501 1096  
                                         u8141 242A                                           u8221 21A4  
                                         u8061 200A                                           u8310 274A  
                                         u7510 10AC                                           u8230 21E2  
                                         u8150 2062                                           u8070 203C  
                                         u8311 2746                                           u7511 10A8  
                                         u8231 21DE                                           u8151 205E  
                                         u8071 2038                                           u8320 28D4  
                                         u7600 11F4                                           u7520 10BC  
                                         u8080 2360                                           u8240 21F0  
                                         u8160 2070                                           u8400 227A  
                                         u8321 28D0                                           u7601 11F0  
                                         u7521 10B8                                           u8081 235C  
                                         u8241 21EC                                           u8161 206C  
                                         u8401 2276                                           u8250 290C  
                                         u8330 28E8                                           u7610 1202  
                                         u7530 10F8                                           u8090 2394  
                                         u8170 20CC                                           u8410 229A  
                                         u8251 2908                                           u8331 28E4  
                                         u7611 11FE                                           u7531 10F4  
                                         u8171 20C8                                           u8411 2296  
                                         u8260 2920                                           u8340 28F8  
                                         u7700 1360                                           u7620 1212  
                                         u7540 1106                                           u7460 1020  
                                         u8500 1502                                           u8180 2122  
                                         u8420 22DC                                           u8261 291C  
                                         u8341 28F4                                           u7701 135C  
                                         u7621 120E                                           u7541 1102  
                                         u7461 101C                                           u8501 14FE  
                                         u8181 211E                                           u8421 22D8  
                                         u8270 2930                                           u7710 1370  
                                         u7630 1244                                           u7550 1174  
                                         u7470 1032                                           u8510 1542  
                                         u8190 216C                                           u8350 25F4  
                                         u8430 22FC                                           u8271 292C  
                                         u7711 136C                                           u7631 1240  
                                         u7551 1170                                           u7471 102E  
                                         u8511 153E                                           u8095 238A  
                                         u8191 2168                                           u8351 25F0  
                                         u8431 22F8                                           u8280 2712  
                                         u7800 1454                                           u7720 138C  
                                         u7640 1252                                           u7560 118C  
                                         u7480 1042                                           u8600 17DE  
                                         u8520 1554                                           u8360 2944  
                                         u8440 2318                                           u8281 270E  
                                         u7801 1450                                           u7721 1388  
                                         u7641 124E                                           u7561 1186  
                                         u7481 103E                                           u8601 17DA  
                                         u8521 1550                                           u8361 2940  
                                         u8441 2314                                           u8290 2724  
                                         u7810 1464                                           u7730 139C  
                                         u7650 1270                                           u7570 118E  
                                         u7490 1084                                           u8610 17F4  
                                         u8530 1564                                           u8450 2338  
                                         u8370 2216                                           u8291 2720  
                                         u7811 1460                                           u7731 1398  
                                         u7651 126C                                           u7491 1080  
                                         u8611 17F0                                           u8531 1560  
                                         u8451 2334                                           u8371 2212  
                                         u7820 1484                                           u7740 13AE  
                                         u7660 12A8                                           u7580 11B6  
                                         u8620 1808                                           u8540 159A  
                                         u7900 1D58                                           u8380 2236  
                                         u8460 253A                                           u7821 1480  
                                         u7741 13AA                                           u7661 12A4  
                                         u7581 11B2                                           u8621 1804  
                                         u8541 1596                                           u7901 1D54  
                                         u8381 2232                                           u8461 2536  
                                         u7830 1496                                           u7750 13C4  
                                         u7670 12EE                                           u7590 11D4  
                                         u8630 1822                                           u8550 15AA  
                                         u7910 1D98                                           u8390 2260  
                                         u8470 254C                                           u7831 1492  
                                         u7751 13C0                                           u7671 12EA  
                                         u7591 11D0                                           u8631 181E  
                                         u8551 15A6                                           u7911 1D94  
                                         u8391 225C                                           u8471 2548  
                                         u7840 14B2                                           u7760 13DA  
                                         u7680 1324                                           u8640 186A  
                                         u8560 1724                                           u8480 14E0  
                                         u7920 1DD8                                           u7841 14AE  
                                         u7761 13D6                                           u7681 1320  
                                         u8641 1866                                           u8481 14DC  
                                         u7921 1DD4                                           u7770 13EE  
                                         u7690 1334                                           u8650 1898  
                                         u8570 177E                                           u8490 14F2  
                                         u7930 1E4E                                           u7850 1CD0  
                                         u7771 13EA                                           u7691 1330  
                                         u8651 1894                                           u8571 177A  
                                         u8491 14EE                                           u7931 1E4A  
                                         u7851 1CCC                                           u8707 26C6  
                                         u7780 1408                                           u8660 18D2  
                                         u8580 179E                                           u7940 1E70  
                                         u7860 1CE2                                           u7781 1404  
                                         u8661 18CE                                           u8581 179A  
                                         u8565 171A                                           u7941 1E6C  
                                         u7861 1CDE                                           u7790 1442  
                                         u8590 17B0                                           u8670 2462  
                                         u7950 1E9A                                           u7870 1CF2  
                                         u7791 143E                                           u8591 17AC  
                                         u8671 245E                                           u7951 1E96  
                                         u7871 1CEE                                           u7960 1EBE  
                                         u7880 1D36                                           u7961 1EBA  
                                         u7881 1D32                                           u7970 1ED4  
                                         u7890 1D48                                           u8690 26F8  
                                         u7971 1ED0                                           u7891 1D44  
                                         u8691 26F4                                           u7980 1EF2  
                                         u7981 1EEE                                           u7990 1F12  
                                         u7991 1F0E                                           _TMR2 000FCC  
                      ??_application_intialize 0050                      __end_of_Interrupt_Manager 1CB6  
                                         _main 2692                               __end_of_CCP1_ISR 2A5E  
                                         fsr2h 000FDA                                           indf2 000FDF  
                                         fsr1l 000FE1                                           fsr2l 000FD9  
                                         btemp 007C                                           prodh 000FF4  
                                         prodl 000FF3                                           start 000E  
                              ___fldiv@new_exp 0022                                   ___param_bank 000000  
                 _Timer0_PreLoaded_Value_Store 0056                               __end_of_INT0_ISR 2A4E  
                             __end_of_INT1_ISR 2A4A                               __end_of_INT2_ISR 2A46  
                 _Timer3_PreLoaded_Value_Store 0052                                  _EUSART_RX_ISR 2986  
                                ___fltol@sign1 0042                                  _EUSART_TX_ISR 2A56  
                              __end_of___fladd 14C6                                          ?_main 0001  
                       Servo_SetAngle@servo_no 0048                                __end_of___fldiv 2050  
                                        _EEADR 000FA9                                __end_of___flmul 18F0  
                              __end_of___fltol 2450                    ??_MSSP_I2C_Master_Send_Stop 0005  
                                        i2l555 2A5C                                          i2l495 2A60  
                                        i2l840 2A50                                          i2l844 2A54  
                                        _RCREG 000FAE                            relay_turn_off@F3046 0070  
                                        _TMR0H 000FD7                                          _TMR1H 000FCF  
                                        _TMR0L 000FD6                                          _TMR1L 000FCE  
                                        _TMR3H 000FB3                                          _TMR3L 000FB2  
                                        _SPBRG 000FAF                                          _PORTA 000F80  
                                        _PORTB 000F81                                          _PORTC 000F82  
                                        _PORTD 000F83                                          _PORTE 000F84  
                                        _TRISA 000F92                                          _TRISB 000F93  
                                        _TRISC 000F94                                          _TRISD 000F95  
                                        _TRISE 000F96                                          _TXREG 000FAD  
                             __end_of_TMR0_ISR 2A2E                               __end_of_TMR1_ISR 2A22  
                             __end_of_TMR2_ISR 2A36                               __end_of_TMR3_ISR 2A16  
                                        _angle 006D                                          main@i 00E9  
                                        tablat 000FF5                           PCA_Write_Reg@i2c_obj 0009  
                                        ttemp5 007D                                          ttemp6 0080  
                                        ttemp7 0084                                          status 000FD8  
                                        wtemp8 007D               ServoDriver_Init@servo_driver_obj 004D  
                  _I2C_DefaultInterruptHandler 0064                                __initialization 27CE  
       MSSP_I2C_Master_Write_Blocking@i2c_data 0005                                   __end_of_main 2700  
                                    ??_I2C_ISR 0001                                      ??_ADC_ISR 0001  
                               ?_EUSART_RX_ISR 0001                                 ?_EUSART_TX_ISR 0001  
                                _lat_registers 009A                                         ??_main 0050  
                                 ??_I2C_BC_ISR 0001                      Servo_SetAngle@reg_addrees 004D  
                                __activetblptr 000003                               led_turn_on@F3043 0075  
                                    ??_RB4_ISR 0001                        ?_I2C_Pin_Configurations 0001  
                                    ??_RB5_ISR 0001                                      ??_RB6_ISR 0001  
                                    ??_RB7_ISR 0001                                         _ADRESH 000FC4  
                                       _EEADRH 000FAA                                         _ADRESL 000FC3  
                                       _EEDATA 000FA8                                         _CCPR1H 000FBF  
                                       _CCPR1L 000FBE                                         _EECON2 000FA7  
                     _Timer2_Interrupt_Handler 00D5                   ??_MSSP_I2C_Master_Send_Start 0005  
                                       i2l1012 2A48                                         i2l1008 2A4C  
                                       i2l1016 2A44                                         i2l1062 2A08  
                                       i2l1071 29EE                                         i2l1151 1912  
                                       i2l1080 29D4                                         i2l1161 1A1E  
                                       i2l1153 1932                                         i2l1171 1B72  
                                       i2l1163 1A62                                         i2l1155 1952  
                                       i2l1316 2A20                                         i2l1181 1C12  
                                       i2l1173 1B92                                         i2l1165 1AA6  
                                       i2l1157 1996                                         i2l1238 2A2C  
                                       i2l1430 2A14                                         i2l1183 1C32  
                                       i2l1175 1BB2                                         i2l1167 1AEA  
                                       i2l1159 19DA                                         i2l1192 1CB2  
                                       i2l1089 29BA                                         i2l1185 1C52  
                                       i2l1177 1BD2                                         i2l1169 1B2E  
                                       i2l1187 1C72                                         i2l1179 1BF2  
                                       i2l1380 2A34                                         i2l1189 1C92  
                                       i2l3304 2A5E                                         i2l3312 2A4E  
                                       i2l3308 2A5A                                         i2l3316 2A52  
                                       i2l3362 2A4A                                         i2l3370 2A42  
                                       i2l1587 2A58                                         i2l1596 29A0  
                                       i2l3380 2A08                                         i2l3366 2A46  
                                       i2l3374 29F2                                         i2l3376 29F4  
                                       i2l6300 29BE                                         i2l6302 29C0  
                                       i2l6310 29A4                                         i2l6312 29A6  
                                       i2l6320 2A22                                         i2l6306 29D4  
                                       i2l6322 2A24                                         i2l6330 2A18  
                                       i2l6316 29BA                                         i2l6324 2A28  
                                       i2l6332 2A1C                                         i2l6340 2A0A  
                                       i2l7300 1B06                                         i2l6342 2A0C  
                                       i2l7310 1B4A                                         i2l7302 1B14  
                                       i2l7230 1920                                         i2l6328 2A16  
                                       i2l6336 2A2E                                         i2l6344 2A10  
                                       i2l7320 1B8E                                         i2l7312 1B58  
                                       i2l7304 1B24                                         i2l7240 196E  
                                       i2l7232 192E                                         i2l7224 18F2  
                                       i2l6354 2986                                         i2l6290 29D8  
                                       i2l7330 1BE0                                         i2l7322 1BA0  
                                       i2l7314 1B68                                         i2l7306 1B28  
                                       i2l7250 19B2                                         i2l7242 197C  
                                       i2l7234 1940                                         i2l7226 1900  
                                       i2l6356 299A                                         i2l6348 2A56  
                                       i2l6292 29DA                                         i2l7340 1C2E  
                                       i2l7332 1BEE                                         i2l7324 1BAE  
                                       i2l7316 1B6C                                         i2l7308 1B3C  
                                       i2l7260 19F6                                         i2l7252 19C0  
                                       i2l7244 198C                                         i2l7236 194E  
                                       i2l7228 190E                                         i2l6358 29A0  
                                       i2l7350 1C80                                         i2l7342 1C40  
                                       i2l7334 1C00                                         i2l7326 1BC0  
                                       i2l7318 1B80                                         i2l7270 1A3A  
                                       i2l7262 1A04                                         i2l7254 19D0  
                                       i2l7246 1990                                         i2l7238 1960  
                                       i2l6296 29EE                                         i2l7352 1C8E  
                                       i2l7344 1C4E                                         i2l7336 1C0E  
                                       i2l7328 1BCE                                         i2l7280 1A7E  
                                       i2l7272 1A48                                         i2l7264 1A14  
                                       i2l7256 19D4                                         i2l7248 19A4  
                                       i2l7354 1CA0                                         i2l7346 1C60  
                                       i2l7338 1C20                                         i2l7290 1AC2  
                                       i2l7282 1A8C                                         i2l7274 1A58  
                                       i2l7266 1A18                                         i2l7258 19E8  
                                       i2l7356 1CAE                                         i2l7348 1C6E  
                                       i2l7292 1AD0                                         i2l7284 1A9C  
                                       i2l7276 1A5C                                         i2l7268 1A2C  
                                       i2l7294 1AE0                                         i2l7286 1AA0  
                                       i2l7278 1A70                                         i2l7296 1AE4  
                                       i2l7288 1AB4                                         i2l7298 1AF8  
                   __size_of_Interrupt_Manager 1CAE                                         _SPBRGH 000FB0  
                    _MSSP_I2C_Master_Send_Stop 28C2                                         _SSPADD 000FC8  
                                       _SSPBUF 000FC9                               __end_of___xxtofl 2204  
                       __size_of_PCA_Write_Reg 0066                          __end_of_MSSP_I2C_Init 234A  
                           __end_of_I2C_BC_ISR 2A56   __end_of_I2C_Master_Mode_Clock_Configurations 2692  
__size_of_I2C_Master_Mode_Clock_Configurations 00B0         ??_I2C_Master_Mode_Clock_Configurations 0046  
        ?_I2C_Master_Mode_Clock_Configurations 0044           _I2C_Master_Mode_Clock_Configurations 25E2  
                      __size_of_Servo_SetAngle 00D8                                         _s1_obj 00BB  
                                    ??___fladd 0032                                      ??___fldiv 0019  
                                    ??___flmul 0019                                      ??___fltol 003E  
                                       clear_0 2814                                         clear_1 2820  
               __end_of_I2C_Pin_Configurations 2A3C            __size_of_MSSP_I2C_Master_Send_Start 0038  
                                    ?_CCP1_ISR 0001                                   __pdataCOMRAM 0077  
                                 __mediumconst 0000                                         tblptrh 000FF7  
                                       tblptrl 000FF6                                         tblptru 000FF8  
                    __size_of_ServoDriver_Init 00BA                                   ___xxtofl@arg 000D  
                                 ___xxtofl@exp 000C                                   ___xxtofl@val 0003  
                                   __accesstop 0080                        __end_of__initialization 2826  
                 ?_I2C_Interrupt_configuration 0003                                      ?_INT0_ISR 0001  
                                    ?_INT1_ISR 0001                                      ?_INT2_ISR 0001  
                                ___rparam_used 000001                                     ___fltol@f1 003A  
             ??_MSSP_I2C_Master_Write_Blocking 0008                ?_MSSP_I2C_Master_Write_Blocking 0003  
                   _I2C_Report_Write_Collision 0062                                 __pcstackCOMRAM 0001  
           MSSP_I2C_Master_Write_Blocking@_ack 0006                                   __pidataBANK0 2882  
                                    ?_TMR0_ISR 0001                                ??_EUSART_RX_ISR 0001  
        MSSP_I2C_Master_Write_Blocking@i2c_obj 0003                                      ?_TMR1_ISR 0001  
                                    ?_TMR2_ISR 0001                                      ?_TMR3_ISR 0001  
                              ??_EUSART_TX_ISR 0001                              RB5_ISR@RB5_source 0001  
                   _RB6_Interrupt_Handler_High 00DF                                  _PCA_Write_Reg 2768  
                                   ??_CCP1_ISR 0001                      _RB5_Interrupt_Handler_Low 00E5  
                                   __pbssBANK0 00BF                                     ??_INT0_ISR 0001  
                                   ??_INT1_ISR 0001                                     ??_INT2_ISR 0001  
               __size_of_application_intialize 0022                         _INT2_Interrupt_Handler 005C  
                __end_of_application_intialize 2986                    _EUSART_TX_Interrupt_Handler 00D1  
                                   ??_TMR0_ISR 0001                                     ??_TMR1_ISR 0001  
                                   ??_TMR2_ISR 0001                                     ??_TMR3_ISR 0001  
                            led_turn_off@F3048 0074                                        _I2C_ISR 2A4E  
                                      _ADC_ISR 2A5E                                 ?_PCA_Write_Reg 0009  
                                      _RB4_ISR 29F0                                        _RB5_ISR 29D6  
                                      _RB6_ISR 29BC                                        _RB7_ISR 29A2  
                                _keypad_matrix 0080                                      ?___xxtofl 0003  
                         led_turn_toggle@F3053 0073                     PCA_Write_Reg@slave_address 000B  
         _EUSART_RX__Framing_Interrupt_Handler 00CD                              RB7_ISR@RB7_source 0001  
           __end_of_MSSP_I2C_Master_Send_Start 2932                     _MSSP_I2C_Master_Send_Start 28FA  
                               _tris_registers 00A4                                        _i2c_obj 00AE  
                                      __Hparam 0000                                 _Servo_SetAngle 2450  
                                      __Lparam 0000                                        ___fladd 1006  
                                      ___fldiv 1CB6                                        ___flmul 14C6  
                                      ___fltol 234A                                   __psmallconst 1000  
                 _Timer1_PreLoaded_Value_Store 0054                                        __pcinit 27CE  
                                      __ramtop 1000                                        __ptext0 2692  
                                      __ptext1 2964                                        __ptext2 2528  
                                      __ptext3 2204                                        __ptext4 2932  
                                      __ptext5 2A36                                        __ptext6 25E2  
                                      __ptext7 1CB6                                        __ptext8 2830  
                                      __ptext9 2450           __size_of_I2C_Interrupt_configuration 0052  
                                    _T0CONbits 000FD5                                      _T1CONbits 000FCD  
                                    _T2CONbits 000FCA                                     ??___xxtofl 0007  
                                    _T3CONbits 000FB1               MSSP_I2C_Master_Send_Stop@i2c_obj 0003  
                               __pintcode_body 18F0                           end_of_initialization 2826  
                             _ServoDriver_Init 2528                       PCA_Write_Reg@reg_address 000C  
                                      int_func 18F0                         __end_of_Servo_SetAngle 2528  
                                    _RCSTAbits 000FAB                                        postdec1 000FE5  
                                      postdec2 000FDD                                        postinc0 000FEE  
                                      postinc2 000FDE                                ??_PCA_Write_Reg 000E  
                                    _PORTBbits 000F81                                    ___fladd@grs 0039  
                                ___xxtofl@sign 000B                          Servo_SetAngle@i2c_obj 0044  
                                    _TRISCbits 000F94                              __size_of_CCP1_ISR 0004  
                                  ___fldiv@grs 0024                                    ___fldiv@rem 001D  
                     _Timer0_Interrupt_Handler 00D9                       _Timer3_Interrupt_Handler 00D3  
                                  ___flmul@grs 001F                              PCA_Write_Reg@data 000D  
                                  _CCP1CONbits 000FBD                                ?_Servo_SetAngle 0044  
                                    _TXSTAbits 000FAC                              __size_of_INT0_ISR 0004  
                            __size_of_INT1_ISR 0004                              __size_of_INT2_ISR 0004  
                           relay_turn_on@F3041 0071                  convert_uint16_to_string@F3187 00BF  
                                  _BAUDCONbits 000FB8                                  __pidataCOMRAM 2A3C  
                            __size_of_TMR0_ISR 000C                              __size_of_TMR1_ISR 000C  
                            __size_of_TMR2_ISR 0008                              __size_of_TMR3_ISR 000C  
                          start_initialization 27CE                         __size_of_MSSP_I2C_Init 0146  
                                  __pdataBANK0 0080                                       ?_I2C_ISR 0001  
                                     ?_ADC_ISR 0001                          __end_of_EUSART_RX_ISR 29A2  
                        __end_of_EUSART_TX_ISR 2A5A                     _RB5_Interrupt_Handler_High 00E3  
                                    ___fladd@a 002E                                      ___fladd@b 002A  
                         MSSP_I2C_Init@i2c_obj 0048                                      ___fldiv@a 0015  
                                    ___fldiv@b 0011                                       ?_RB4_ISR 0001  
                                     ?_RB5_ISR 0001                                       ?_RB6_ISR 0001  
                                     ?_RB7_ISR 0001                                      ___flmul@a 0015  
                                    ___flmul@b 0011                                    __pbssCOMRAM 0052  
                          Servo_SetAngle@angle 0049                                  __pcstackBANK0 00E9  
                            __size_of___xxtofl 01B4                    ?_MSSP_I2C_Master_Send_Start 0003  
                    _RB6_Interrupt_Handler_Low 00E1                         _INT0_Interrupt_Handler 0060  
                                _MSSP_I2C_Init 2204                          _application_intialize 2964  
                                    __pintcode 0008                       ??_I2C_Pin_Configurations 0003  
                                     ?___fladd 002A                                       ?___fldiv 0011  
                                     ?___flmul 0011                                       ?___fltol 003A  
                               _master_counter 00C5                       __end_of_ServoDriver_Init 25E2  
                                  __smallconst 1000                                       _CCP1_ISR 2A5A  
                      ServoDriver_Init@i2c_obj 004B    __end_of_I2C_Slave_Mode_Clock_Configurations 2964  
 __size_of_I2C_Slave_Mode_Clock_Configurations 0032          ??_I2C_Slave_Mode_Clock_Configurations 0005  
         ?_I2C_Slave_Mode_Clock_Configurations 0003            _I2C_Slave_Mode_Clock_Configurations 2932  
          __end_of_I2C_Interrupt_configuration 2882                    _I2C_Interrupt_configuration 2830  
                                     _INT0_ISR 2A4A                                       _INT1_ISR 2A46  
                                     _INT2_ISR 2A42                                       _RB4_flag 007A  
                                     _PIE1bits 000F9D                                       _PIE2bits 000FA0  
                                     _RB5_flag 0079                                       _RB6_flag 0078  
                                     _RB7_flag 0077                                 ?_MSSP_I2C_Init 0048  
                                     i2u159_40 2A04                                       i2u159_41 2A00  
                                     _PIR1bits 000F9E                                       _PIR2bits 000FA1  
                                     i2u700_40 1C20                                       i2u700_41 1C1C  
                                     i2u701_40 1C2E                                       i2u701_41 1C2A  
                                     i2u702_40 1C40                                       i2u702_41 1C3C  
                                     i2u703_40 1C4E                                       i2u703_41 1C4A  
                                     i2u704_40 1C60                                       i2u704_41 1C5C  
                                     i2u705_40 1C6E                                       i2u705_41 1C6A  
                                     i2u706_40 1C80                                       i2u706_41 1C7C  
                                     i2u707_40 1C8E                                       i2u707_41 1C8A  
                                     i2u564_40 29EA                                       i2u708_40 1CA0  
                                     i2u660_40 197C                                       i2u652_40 1900  
                                     i2u564_41 29E6                                       i2u708_41 1C9C  
                                     i2u660_41 1978                                       i2u652_41 18FC  
                                     i2u565_40 29D0                                       i2u709_40 1CAE  
                                     i2u661_40 198C                                       i2u653_40 190E  
                                     i2u565_41 29CC                                       i2u709_41 1CAA  
                                     i2u661_41 1988                                       i2u653_41 190A  
                                     i2u566_40 29B6                                       i2u670_40 1A2C  
                                     i2u662_40 19A4                                       i2u654_40 1920  
                                     i2u566_41 29B2                                       i2u670_41 1A28  
                                     i2u662_41 19A0                                       i2u654_41 191C  
                                     i2u567_40 299A                                       i2u671_40 1A3A  
                                     i2u663_40 19B2                                       i2u655_40 192E  
                                     i2u567_41 2996                                       i2u671_41 1A36  
                                     i2u663_41 19AE                                       i2u655_41 192A  
                                     i2u680_40 1AD0                                       i2u672_40 1A48  
                                     i2u664_40 19C0                                       i2u656_40 1940  
                                     i2u680_41 1ACC                                       i2u672_41 1A44  
                                     i2u664_41 19BC                                       i2u656_41 193C  
                                     i2u681_40 1AE0                                       i2u673_40 1A58  
                                     i2u665_40 19D0                                       i2u657_40 194E  
                                     i2u681_41 1ADC                                       i2u673_41 1A54  
                                     i2u665_41 19CC                                       i2u657_41 194A  
                                     i2u690_40 1B80                                       i2u682_40 1AF8  
                                     i2u674_40 1A70                                       i2u666_40 19E8  
                                     i2u658_40 1960                                       i2u690_41 1B7C  
                                     i2u682_41 1AF4                                       i2u674_41 1A6C  
                                     i2u666_41 19E4                                       i2u658_41 195C  
                                     i2u691_40 1B8E                                       i2u683_40 1B06  
                                     i2u675_40 1A7E                                       i2u667_40 19F6  
                                     i2u659_40 196E                                       i2u691_41 1B8A  
                                     i2u683_41 1B02                                       i2u675_41 1A7A  
                                     i2u667_41 19F2                                       i2u659_41 196A  
                                     i2u692_40 1BA0                                       i2u684_40 1B14  
                                     i2u676_40 1A8C                                       i2u668_40 1A04  
                                     i2u692_41 1B9C                                       i2u684_41 1B10  
                                     i2u676_41 1A88                                       i2u668_41 1A00  
                                     i2u693_40 1BAE                                       i2u685_40 1B24  
                                     i2u677_40 1A9C                                       i2u669_40 1A14  
                                     i2u693_41 1BAA                                       i2u685_41 1B20  
                                     i2u677_41 1A98                                       i2u669_41 1A10  
                                     i2u694_40 1BC0                                       i2u686_40 1B3C  
                                     i2u678_40 1AB4                                       i2u694_41 1BBC  
                                     i2u686_41 1B38                                       i2u678_41 1AB0  
                                     i2u695_40 1BCE                                       i2u687_40 1B4A  
                                     i2u679_40 1AC2                                       i2u695_41 1BCA  
                                     i2u687_41 1B46                                       i2u679_41 1ABE  
                                     i2u696_40 1BE0                                       i2u688_40 1B58  
                                     i2u696_41 1BDC                                       i2u688_41 1B54  
                                     i2u697_40 1BEE                                       i2u689_40 1B68  
                                     i2u697_41 1BEA                                       i2u689_41 1B64  
                                     i2u698_40 1C00                                       i2u698_41 1BFC  
                                     i2u699_40 1C0E                                       i2u699_41 1C0A  
                ??_I2C_Interrupt_configuration 0005                              RB4_ISR@RB4_source 0001  
                                     _TMR0_ISR 2A22                                       _TMR1_ISR 2A16  
                                     _TMR2_ISR 2A2E                                       _TMR3_ISR 2A0A  
             CCP1_Compare_Mode_Set_Value@F3194 0066                   _Timer2_PreLoaded_Value_Store 006F  
                  _I2C_Report_Receive_Overflow 00E7                               __size_of_I2C_ISR 0004  
                             __size_of_ADC_ISR 0004                                     _ADCON0bits 000FC2  
                                   _ADCON1bits 000FC1                                     _ADCON2bits 000FC0  
                                   _I2C_BC_ISR 2A52                               PCA_Write_Reg@ack 000E  
                             __size_of_RB4_ISR 001A                               __size_of_RB5_ISR 001A  
                             __size_of_RB6_ISR 001A                               __size_of_RB7_ISR 001A  
                                    _storedata 006C                               ??_Servo_SetAngle 004A  
                                  _INTCON2bits 000FF1                                    _INTCON3bits 000FF0  
                                    copy_data0 27E2                                      copy_data1 2802  
                                _slave_address 006E                                     _EECON1bits 000FA6  
                       ?_application_intialize 0001                                       __Hrparam 0000  
                                     __Lrparam 0000                __size_of_I2C_Pin_Configurations 0006  
                        _ADC_Interrupt_Handler 006A                               __size_of___fladd 04C0  
                             __size_of___fldiv 039A                               __size_of___flmul 042A  
                        _CCP1_InterruptHandler 0068                               __size_of___fltol 0106  
         _EUSART_RX__Overrun_Interrupt_Handler 00CB                          __end_of_PCA_Write_Reg 27CE  
           __size_of_MSSP_I2C_Master_Send_Stop 0038                     ?_MSSP_I2C_Master_Send_Stop 0003  
            MSSP_I2C_Master_Send_Start@i2c_obj 0003                              RB6_ISR@RB6_source 0001  
                                     ___xxtofl 2050                                       __ptext10 2050  
                                     __ptext11 234A                                       __ptext20 2A2E  
                                     __ptext12 14C6                                       __ptext21 2A16  
                                     __ptext13 1006                                       __ptext30 2A4E  
                                     __ptext22 2A22                                       __ptext14 2768  
                                     __ptext31 2A52                                       __ptext23 29A2  
                                     __ptext15 2700                                       __ptext32 2A56  
                                     __ptext24 29BC                                       __ptext16 28C2  
                                     __ptext33 2986                                       __ptext25 29D6  
                                     __ptext17 28FA                                       __ptext34 2A5A  
                                     __ptext26 29F0                                       __ptext35 2A5E  
                                     __ptext27 2A42                                       __ptext19 2A0A  
                                     __ptext28 2A46                                       __ptext29 2A4A  
  I2C_Master_Mode_Clock_Configurations@i2c_obj 0044     I2C_Slave_Mode_Clock_Configurations@i2c_obj 0003  
                     _Timer1_Interrupt_Handler 00D7                 Servo_SetAngle@servo_driver_obj 0046  
                                __size_of_main 006E                                ??_MSSP_I2C_Init 004A  
                                     int$flags 007C                                    ?_I2C_BC_ISR 0001  
            __end_of_MSSP_I2C_Master_Send_Stop 28FA                                     _INTCONbits 000FF2  
                       _I2C_Pin_Configurations 2A36                                       intlevel2 0000  
                   _RB4_Interrupt_Handler_High 0058                     Servo_SetAngle@angle_in_reg 004B  
                            ?_ServoDriver_Init 004B                     _RB7_Interrupt_Handler_High 00DB  
                           ??_ServoDriver_Init 004F                                 _port_registers 0090  
       __end_of_MSSP_I2C_Master_Write_Blocking 2768        __size_of_MSSP_I2C_Master_Write_Blocking 0068  
               _MSSP_I2C_Master_Write_Blocking 2700             I2C_Interrupt_configuration@i2c_obj 0003  
                                  _SSPCON1bits 000FC6                                    _SSPCON2bits 000FC5  
                    _RB4_Interrupt_Handler_Low 005A                                  ___fladd@signs 0036  
                    _RB7_Interrupt_Handler_Low 00DD                                   ___fladd@aexp 0037  
                                 ___fladd@bexp 0038                         __size_of_EUSART_RX_ISR 001C  
                       __size_of_EUSART_TX_ISR 0004                         _INT1_Interrupt_Handler 005E  
                  _EUSART_RX_Interrupt_Handler 00CF                              _Interrupt_Manager 0008  
                          __size_of_I2C_BC_ISR 0004                             ?_Interrupt_Manager 0001  
